	.arch armv5te
	.fpu softvfp
	.eabi_attribute 20, 1
	.eabi_attribute 21, 1
	.eabi_attribute 23, 3
	.eabi_attribute 24, 1
	.eabi_attribute 25, 1
	.eabi_attribute 26, 2
	.eabi_attribute 30, 6
	.eabi_attribute 34, 0
	.eabi_attribute 18, 4
	.file	"neocrypt.c"
	.global	m1_address_8_15_xor
	.section	.rodata
	.align	2
	.type	m1_address_8_15_xor, %object
	.size	m1_address_8_15_xor, 256
m1_address_8_15_xor:
	.byte	10
	.byte	114
	.byte	-73
	.byte	-81
	.byte	103
	.byte	-34
	.byte	29
	.byte	-79
	.byte	120
	.byte	-60
	.byte	79
	.byte	-75
	.byte	75
	.byte	24
	.byte	118
	.byte	-35
	.byte	17
	.byte	-30
	.byte	54
	.byte	-95
	.byte	-126
	.byte	3
	.byte	-104
	.byte	-96
	.byte	16
	.byte	95
	.byte	63
	.byte	-42
	.byte	31
	.byte	-112
	.byte	106
	.byte	11
	.byte	112
	.byte	-32
	.byte	100
	.byte	-53
	.byte	-97
	.byte	56
	.byte	-117
	.byte	83
	.byte	4
	.byte	-54
	.byte	-8
	.byte	-48
	.byte	7
	.byte	104
	.byte	86
	.byte	50
	.byte	-82
	.byte	28
	.byte	46
	.byte	72
	.byte	99
	.byte	-110
	.byte	-102
	.byte	-100
	.byte	68
	.byte	-123
	.byte	65
	.byte	64
	.byte	9
	.byte	-64
	.byte	-56
	.byte	-65
	.byte	-22
	.byte	-69
	.byte	-9
	.byte	45
	.byte	-103
	.byte	33
	.byte	-10
	.byte	-70
	.byte	21
	.byte	-50
	.byte	-85
	.byte	-80
	.byte	42
	.byte	96
	.byte	-68
	.byte	-15
	.byte	-16
	.byte	-98
	.byte	-43
	.byte	-105
	.byte	-40
	.byte	78
	.byte	20
	.byte	-99
	.byte	66
	.byte	77
	.byte	44
	.byte	92
	.byte	43
	.byte	-90
	.byte	-31
	.byte	-89
	.byte	-17
	.byte	37
	.byte	51
	.byte	122
	.byte	-21
	.byte	-25
	.byte	27
	.byte	109
	.byte	76
	.byte	82
	.byte	38
	.byte	98
	.byte	-74
	.byte	53
	.byte	-66
	.byte	-128
	.byte	1
	.byte	-67
	.byte	-3
	.byte	55
	.byte	-7
	.byte	71
	.byte	85
	.byte	113
	.byte	-76
	.byte	-14
	.byte	-1
	.byte	39
	.byte	-6
	.byte	35
	.byte	-55
	.byte	-125
	.byte	23
	.byte	57
	.byte	19
	.byte	13
	.byte	-57
	.byte	-122
	.byte	22
	.byte	-20
	.byte	73
	.byte	111
	.byte	-2
	.byte	52
	.byte	5
	.byte	-113
	.byte	0
	.byte	-26
	.byte	-92
	.byte	-38
	.byte	123
	.byte	-63
	.byte	-13
	.byte	-12
	.byte	-39
	.byte	117
	.byte	40
	.byte	102
	.byte	-121
	.byte	-88
	.byte	69
	.byte	108
	.byte	32
	.byte	-23
	.byte	119
	.byte	-109
	.byte	126
	.byte	60
	.byte	30
	.byte	116
	.byte	-11
	.byte	-116
	.byte	62
	.byte	-108
	.byte	-44
	.byte	-62
	.byte	90
	.byte	6
	.byte	14
	.byte	-24
	.byte	61
	.byte	-87
	.byte	-78
	.byte	-29
	.byte	-28
	.byte	34
	.byte	-49
	.byte	36
	.byte	-114
	.byte	107
	.byte	-118
	.byte	-115
	.byte	-124
	.byte	74
	.byte	-46
	.byte	-111
	.byte	-120
	.byte	121
	.byte	87
	.byte	-91
	.byte	15
	.byte	-51
	.byte	-71
	.byte	-84
	.byte	59
	.byte	-86
	.byte	-77
	.byte	-47
	.byte	-18
	.byte	49
	.byte	-127
	.byte	124
	.byte	-41
	.byte	-119
	.byte	-45
	.byte	-106
	.byte	67
	.byte	-59
	.byte	-58
	.byte	-61
	.byte	105
	.byte	127
	.byte	70
	.byte	-33
	.byte	48
	.byte	91
	.byte	110
	.byte	-27
	.byte	8
	.byte	-107
	.byte	-101
	.byte	-5
	.byte	-72
	.byte	88
	.byte	12
	.byte	97
	.byte	80
	.byte	93
	.byte	58
	.byte	-94
	.byte	41
	.byte	18
	.byte	-4
	.byte	81
	.byte	125
	.byte	26
	.byte	2
	.byte	101
	.byte	84
	.byte	94
	.byte	25
	.byte	-52
	.byte	-36
	.byte	-37
	.byte	115
	.byte	-19
	.byte	-83
	.byte	89
	.byte	47
	.byte	-93
	.global	m1_address_0_7_xor
	.align	2
	.type	m1_address_0_7_xor, %object
	.size	m1_address_0_7_xor, 256
m1_address_0_7_xor:
	.byte	-12
	.byte	-68
	.byte	2
	.byte	-9
	.byte	44
	.byte	61
	.byte	-24
	.byte	-39
	.byte	80
	.byte	98
	.byte	-20
	.byte	-67
	.byte	83
	.byte	115
	.byte	121
	.byte	97
	.byte	0
	.byte	52
	.byte	-49
	.byte	-94
	.byte	99
	.byte	40
	.byte	-112
	.byte	-81
	.byte	68
	.byte	59
	.byte	-59
	.byte	-115
	.byte	58
	.byte	70
	.byte	7
	.byte	112
	.byte	102
	.byte	-66
	.byte	-40
	.byte	-117
	.byte	-23
	.byte	-96
	.byte	75
	.byte	-104
	.byte	-36
	.byte	-33
	.byte	-30
	.byte	22
	.byte	116
	.byte	-15
	.byte	55
	.byte	-11
	.byte	-73
	.byte	33
	.byte	-127
	.byte	1
	.byte	28
	.byte	27
	.byte	-108
	.byte	54
	.byte	9
	.byte	-95
	.byte	74
	.byte	-111
	.byte	48
	.byte	-110
	.byte	-101
	.byte	-102
	.byte	41
	.byte	-79
	.byte	56
	.byte	77
	.byte	85
	.byte	-14
	.byte	86
	.byte	24
	.byte	36
	.byte	71
	.byte	-99
	.byte	63
	.byte	-128
	.byte	31
	.byte	34
	.byte	-92
	.byte	17
	.byte	84
	.byte	-124
	.byte	13
	.byte	37
	.byte	72
	.byte	-18
	.byte	-58
	.byte	89
	.byte	21
	.byte	3
	.byte	122
	.byte	-3
	.byte	108
	.byte	-61
	.byte	51
	.byte	91
	.byte	-60
	.byte	123
	.byte	90
	.byte	5
	.byte	127
	.byte	-90
	.byte	64
	.byte	-87
	.byte	93
	.byte	65
	.byte	-118
	.byte	-106
	.byte	82
	.byte	-45
	.byte	-16
	.byte	-85
	.byte	114
	.byte	16
	.byte	-120
	.byte	111
	.byte	-107
	.byte	124
	.byte	-88
	.byte	-51
	.byte	-100
	.byte	95
	.byte	50
	.byte	-82
	.byte	-123
	.byte	57
	.byte	-84
	.byte	-27
	.byte	-41
	.byte	-5
	.byte	-44
	.byte	8
	.byte	35
	.byte	25
	.byte	101
	.byte	107
	.byte	-89
	.byte	-109
	.byte	-69
	.byte	43
	.byte	-65
	.byte	-72
	.byte	53
	.byte	-48
	.byte	6
	.byte	38
	.byte	104
	.byte	62
	.byte	-35
	.byte	-71
	.byte	105
	.byte	42
	.byte	-78
	.byte	-34
	.byte	-121
	.byte	69
	.byte	88
	.byte	-1
	.byte	60
	.byte	-98
	.byte	125
	.byte	-38
	.byte	-19
	.byte	73
	.byte	-116
	.byte	20
	.byte	-114
	.byte	117
	.byte	47
	.byte	-32
	.byte	110
	.byte	120
	.byte	109
	.byte	32
	.byte	-46
	.byte	-6
	.byte	45
	.byte	81
	.byte	-52
	.byte	-57
	.byte	-25
	.byte	29
	.byte	39
	.byte	-105
	.byte	-4
	.byte	49
	.byte	-37
	.byte	-8
	.byte	66
	.byte	-29
	.byte	-103
	.byte	94
	.byte	-125
	.byte	14
	.byte	-76
	.byte	46
	.byte	-10
	.byte	-64
	.byte	12
	.byte	76
	.byte	87
	.byte	-74
	.byte	100
	.byte	10
	.byte	23
	.byte	-93
	.byte	-63
	.byte	119
	.byte	18
	.byte	-2
	.byte	-26
	.byte	-113
	.byte	19
	.byte	113
	.byte	-28
	.byte	-7
	.byte	-83
	.byte	-97
	.byte	-50
	.byte	-43
	.byte	-119
	.byte	126
	.byte	15
	.byte	-62
	.byte	-122
	.byte	-13
	.byte	103
	.byte	-70
	.byte	96
	.byte	67
	.byte	-55
	.byte	4
	.byte	-77
	.byte	-80
	.byte	30
	.byte	-75
	.byte	-56
	.byte	-21
	.byte	-91
	.byte	118
	.byte	-22
	.byte	92
	.byte	-126
	.byte	26
	.byte	79
	.byte	-86
	.byte	-54
	.byte	-31
	.byte	11
	.byte	78
	.byte	-53
	.byte	106
	.byte	-17
	.byte	-47
	.byte	-42
	.text
	.align	2
	.type	generate_cs16, %function
generate_cs16:
	.fnstart
	@ args = 0, pretend = 0, frame = 16
	@ frame_needed = 1, uses_anonymous_args = 0
	@ link register save eliminated.
	str	fp, [sp, #-4]!
	.save {fp}
	.setfp fp, sp, #0
	add	fp, sp, #0
	.pad #20
	sub	sp, sp, #20
	str	r0, [fp, #-16]
	str	r1, [fp, #-20]
	mov	r3, #0
	strh	r3, [fp, #-6]	@ movhi
	mov	r3, #0
	str	r3, [fp, #-12]
	b	.L2
.L3:
	ldr	r2, [fp, #-16]
	ldr	r3, [fp, #-12]
	add	r3, r2, r3
	ldrb	r3, [r3, #0]	@ zero_extendqisi2
	mov	r2, r3
	ldrh	r3, [fp, #-6]	@ movhi
	add	r3, r2, r3
	strh	r3, [fp, #-6]	@ movhi
	ldr	r3, [fp, #-12]
	add	r3, r3, #1
	str	r3, [fp, #-12]
.L2:
	ldr	r2, [fp, #-12]
	ldr	r3, [fp, #-20]
	cmp	r2, r3
	bcc	.L3
	ldrh	r3, [fp, #-6]
	mov	r0, r3
	add	sp, fp, #0
	ldmfd	sp!, {fp}
	bx	lr
	.fnend
	.size	generate_cs16, .-generate_cs16
	.section	.rodata
	.align	2
.LC13:
	.word	15
	.word	14
	.word	10
	.word	7
	.word	1
	.word	2
	.word	3
	.word	8
	.word	0
	.word	12
	.word	11
	.word	13
	.word	6
	.word	9
	.word	5
	.word	4
	.word	7
	.word	1
	.word	8
	.word	11
	.word	15
	.word	9
	.word	2
	.word	3
	.word	5
	.word	13
	.word	4
	.word	14
	.word	10
	.word	0
	.word	6
	.word	12
	.word	8
	.word	6
	.word	14
	.word	3
	.word	10
	.word	7
	.word	15
	.word	1
	.word	4
	.word	0
	.word	2
	.word	5
	.word	13
	.word	11
	.word	12
	.word	9
	.word	2
	.word	8
	.word	15
	.word	9
	.word	3
	.word	4
	.word	11
	.word	7
	.word	13
	.word	6
	.word	0
	.word	10
	.word	1
	.word	12
	.word	14
	.word	5
	.word	1
	.word	13
	.word	6
	.word	15
	.word	14
	.word	3
	.word	8
	.word	10
	.word	9
	.word	4
	.word	7
	.word	12
	.word	5
	.word	2
	.word	0
	.word	11
	.word	11
	.word	15
	.word	3
	.word	4
	.word	7
	.word	0
	.word	9
	.word	2
	.word	6
	.word	14
	.word	12
	.word	1
	.word	8
	.word	5
	.word	10
	.word	13
	.word	10
	.word	5
	.word	13
	.word	8
	.word	6
	.word	15
	.word	1
	.word	14
	.word	11
	.word	9
	.word	3
	.word	0
	.word	12
	.word	7
	.word	4
	.word	2
	.word	9
	.word	3
	.word	7
	.word	0
	.word	2
	.word	12
	.word	4
	.word	11
	.word	14
	.word	10
	.word	5
	.word	8
	.word	15
	.word	13
	.word	1
	.word	6
	.text
	.align	2
	.type	m1_address_scramble, %function
m1_address_scramble:
	.fnstart
	@ args = 0, pretend = 0, frame = 528
	@ frame_needed = 1, uses_anonymous_args = 0
	stmfd	sp!, {fp, lr}
	.save {fp, lr}
	.setfp fp, sp, #4
	add	fp, sp, #4
	.pad #528
	sub	sp, sp, #528
	str	r0, [fp, #-528]
	mov	r2, r1
	ldr	r3, .L5
	sub	r0, fp, #4
	strh	r2, [r0, r3]	@ movhi
	ldr	r3, .L5+4
	mov	ip, #512
	sub	r2, fp, #524
	mov	r0, r2
	mov	r1, r3
	mov	r3, ip
	mov	r2, r3
	bl	memcpy
	ldr	r3, [fp, #-528]
	mov	r3, r3, lsr #16
	and	r3, r3, #7
	str	r3, [fp, #-8]
	ldr	r3, [fp, #-528]
	mov	r3, r3, asl #16
	mov	r3, r3, lsr #16
	str	r3, [fp, #-12]
	ldr	r3, .L5
	sub	r1, fp, #4
	ldrh	r3, [r1, r3]
	mov	r3, r3, lsr #12
	mov	r3, r3, asl #16
	mov	r3, r3, lsr #16
	mov	r3, r3, asl #15
	mov	r3, r3, asl #16
	mov	r3, r3, lsr #16
	ldr	r2, .L5
	sub	ip, fp, #4
	ldrh	r2, [ip, r2]
	and	r2, r2, #1
	mov	r2, r2, asl #14
	orr	r2, r3, r2
	ldr	r3, .L5
	sub	r0, fp, #4
	ldrh	r3, [r0, r3]
	mov	r3, r3, lsr #2
	mov	r3, r3, asl #16
	mov	r3, r3, lsr #16
	and	r3, r3, #1
	mov	r3, r3, asl #13
	orr	r2, r2, r3
	ldr	r3, .L5
	sub	r1, fp, #4
	ldrh	r3, [r1, r3]
	mov	r3, r3, lsr #4
	mov	r3, r3, asl #16
	mov	r3, r3, lsr #16
	and	r3, r3, #1
	mov	r3, r3, asl #12
	orr	r2, r2, r3
	ldr	r3, .L5
	sub	ip, fp, #4
	ldrh	r3, [ip, r3]
	mov	r3, r3, lsr #8
	mov	r3, r3, asl #16
	mov	r3, r3, lsr #16
	and	r3, r3, #1
	mov	r3, r3, asl #11
	orr	r2, r2, r3
	ldr	r3, .L5
	sub	r0, fp, #4
	ldrh	r3, [r0, r3]
	mov	r3, r3, lsr #15
	mov	r3, r3, asl #16
	mov	r3, r3, lsr #16
	and	r3, r3, #1
	mov	r3, r3, asl #10
	orr	r2, r2, r3
	ldr	r3, .L5
	sub	r1, fp, #4
	ldrh	r3, [r1, r3]
	mov	r3, r3, lsr #7
	mov	r3, r3, asl #16
	mov	r3, r3, lsr #16
	and	r3, r3, #1
	mov	r3, r3, asl #9
	orr	r2, r2, r3
	ldr	r3, .L5
	sub	ip, fp, #4
	ldrh	r3, [ip, r3]
	mov	r3, r3, lsr #13
	mov	r3, r3, asl #16
	mov	r3, r3, lsr #16
	and	r3, r3, #1
	mov	r3, r3, asl #8
	orr	r2, r2, r3
	ldr	r3, .L5
	sub	r0, fp, #4
	ldrh	r3, [r0, r3]
	mov	r3, r3, lsr #10
	mov	r3, r3, asl #16
	mov	r3, r3, lsr #16
	mov	r3, r3, asl #7
	and	r3, r3, #255
	orr	r2, r2, r3
	ldr	r3, .L5
	sub	r1, fp, #4
	ldrh	r3, [r1, r3]
	mov	r3, r3, lsr #1
	mov	r3, r3, asl #16
	mov	r3, r3, lsr #16
	and	r3, r3, #1
	mov	r3, r3, asl #6
	orr	r2, r2, r3
	ldr	r3, .L5
	sub	ip, fp, #4
	ldrh	r3, [ip, r3]
	mov	r3, r3, lsr #3
	mov	r3, r3, asl #16
	mov	r3, r3, lsr #16
	and	r3, r3, #1
	mov	r3, r3, asl #5
	orr	r2, r2, r3
	ldr	r3, .L5
	sub	r0, fp, #4
	ldrh	r3, [r0, r3]
	mov	r3, r3, lsr #6
	mov	r3, r3, asl #16
	mov	r3, r3, lsr #16
	and	r3, r3, #1
	mov	r3, r3, asl #4
	orr	r2, r2, r3
	ldr	r3, .L5
	sub	r1, fp, #4
	ldrh	r3, [r1, r3]
	mov	r3, r3, lsr #11
	mov	r3, r3, asl #16
	mov	r3, r3, lsr #16
	and	r3, r3, #1
	mov	r3, r3, asl #3
	orr	r2, r2, r3
	ldr	r3, .L5
	sub	ip, fp, #4
	ldrh	r3, [ip, r3]
	mov	r3, r3, lsr #9
	mov	r3, r3, asl #16
	mov	r3, r3, lsr #16
	and	r3, r3, #1
	mov	r3, r3, asl #2
	orr	r2, r2, r3
	ldr	r3, .L5
	sub	r0, fp, #4
	ldrh	r3, [r0, r3]
	mov	r3, r3, lsr #14
	mov	r3, r3, asl #16
	mov	r3, r3, lsr #16
	and	r3, r3, #1
	mov	r3, r3, asl #1
	orr	r2, r2, r3
	ldr	r3, .L5
	sub	r1, fp, #4
	ldrh	r3, [r1, r3]
	mov	r3, r3, lsr #5
	mov	r3, r3, asl #16
	mov	r3, r3, lsr #16
	and	r3, r3, #1
	orr	r3, r2, r3
	ldr	r2, [fp, #-12]
	eor	r3, r2, r3
	str	r3, [fp, #-12]
	ldr	r3, [fp, #-8]
	ldr	r1, .L5+8
	mov	r3, r3, asl #6
	sub	ip, fp, #4
	add	r2, ip, r3
	mov	r3, r1
	add	r3, r2, r3
	ldr	r3, [r3, #0]
	ldr	r2, [fp, #-12]
	mov	r3, r2, lsr r3
	mov	r3, r3, asl #15
	mov	r3, r3, asl #16
	mov	r3, r3, lsr #16
	ldr	r2, [fp, #-8]
	ldr	r0, .L5+12
	mov	r2, r2, asl #6
	sub	ip, fp, #4
	add	r1, ip, r2
	mov	r2, r0
	add	r2, r1, r2
	ldr	r2, [r2, #0]
	ldr	r1, [fp, #-12]
	mov	r2, r1, lsr r2
	and	r2, r2, #1
	mov	r2, r2, asl #14
	orr	r2, r3, r2
	ldr	r3, [fp, #-8]
	ldr	r0, .L5+16
	mov	r3, r3, asl #6
	sub	ip, fp, #4
	add	r1, ip, r3
	mov	r3, r0
	add	r3, r1, r3
	ldr	r3, [r3, #0]
	ldr	r1, [fp, #-12]
	mov	r3, r1, lsr r3
	and	r3, r3, #1
	mov	r3, r3, asl #13
	orr	r2, r2, r3
	ldr	r3, [fp, #-8]
	ldr	r0, .L5+20
	mov	r3, r3, asl #6
	sub	ip, fp, #4
	add	r1, ip, r3
	mov	r3, r0
	add	r3, r1, r3
	ldr	r3, [r3, #0]
	ldr	r1, [fp, #-12]
	mov	r3, r1, lsr r3
	and	r3, r3, #1
	mov	r3, r3, asl #12
	orr	r2, r2, r3
	ldr	r3, [fp, #-8]
	ldr	r0, .L5+24
	mov	r3, r3, asl #6
	sub	ip, fp, #4
	add	r1, ip, r3
	mov	r3, r0
	add	r3, r1, r3
	ldr	r3, [r3, #0]
	ldr	r1, [fp, #-12]
	mov	r3, r1, lsr r3
	and	r3, r3, #1
	mov	r3, r3, asl #11
	orr	r2, r2, r3
	ldr	r3, [fp, #-8]
	ldr	r0, .L5+28
	mov	r3, r3, asl #6
	sub	ip, fp, #4
	add	r1, ip, r3
	mov	r3, r0
	add	r3, r1, r3
	ldr	r3, [r3, #0]
	ldr	r1, [fp, #-12]
	mov	r3, r1, lsr r3
	and	r3, r3, #1
	mov	r3, r3, asl #10
	orr	r2, r2, r3
	ldr	r3, [fp, #-8]
	ldr	r0, .L5+32
	mov	r3, r3, asl #6
	sub	ip, fp, #4
	add	r1, ip, r3
	mov	r3, r0
	add	r3, r1, r3
	ldr	r3, [r3, #0]
	ldr	r1, [fp, #-12]
	mov	r3, r1, lsr r3
	and	r3, r3, #1
	mov	r3, r3, asl #9
	orr	r2, r2, r3
	ldr	r3, [fp, #-8]
	ldr	r0, .L5+36
	mov	r3, r3, asl #6
	sub	ip, fp, #4
	add	r1, ip, r3
	mov	r3, r0
	add	r3, r1, r3
	ldr	r3, [r3, #0]
	ldr	r1, [fp, #-12]
	mov	r3, r1, lsr r3
	and	r3, r3, #1
	mov	r3, r3, asl #8
	orr	r2, r2, r3
	ldr	r3, [fp, #-8]
	ldr	r0, .L5+40
	mov	r3, r3, asl #6
	sub	ip, fp, #4
	add	r1, ip, r3
	mov	r3, r0
	add	r3, r1, r3
	ldr	r3, [r3, #0]
	ldr	r1, [fp, #-12]
	mov	r3, r1, lsr r3
	mov	r3, r3, asl #7
	and	r3, r3, #255
	orr	r2, r2, r3
	ldr	r3, [fp, #-8]
	ldr	r0, .L5+44
	mov	r3, r3, asl #6
	sub	ip, fp, #4
	add	r1, ip, r3
	mov	r3, r0
	add	r3, r1, r3
	ldr	r3, [r3, #0]
	ldr	r1, [fp, #-12]
	mov	r3, r1, lsr r3
	and	r3, r3, #1
	mov	r3, r3, asl #6
	orr	r2, r2, r3
	ldr	r3, [fp, #-8]
	ldr	r0, .L5+48
	mov	r3, r3, asl #6
	sub	ip, fp, #4
	add	r1, ip, r3
	mov	r3, r0
	add	r3, r1, r3
	ldr	r3, [r3, #0]
	ldr	r1, [fp, #-12]
	mov	r3, r1, lsr r3
	and	r3, r3, #1
	mov	r3, r3, asl #5
	orr	r2, r2, r3
	ldr	r3, [fp, #-8]
	ldr	r0, .L5+52
	mov	r3, r3, asl #6
	sub	ip, fp, #4
	add	r1, ip, r3
	mov	r3, r0
	add	r3, r1, r3
	ldr	r3, [r3, #0]
	ldr	r1, [fp, #-12]
	mov	r3, r1, lsr r3
	and	r3, r3, #1
	mov	r3, r3, asl #4
	orr	r2, r2, r3
	ldr	r3, [fp, #-8]
	ldr	r0, .L5+56
	mov	r3, r3, asl #6
	sub	ip, fp, #4
	add	r1, ip, r3
	mov	r3, r0
	add	r3, r1, r3
	ldr	r3, [r3, #0]
	ldr	r1, [fp, #-12]
	mov	r3, r1, lsr r3
	and	r3, r3, #1
	mov	r3, r3, asl #3
	orr	r2, r2, r3
	ldr	r3, [fp, #-8]
	ldr	r0, .L5+60
	mov	r3, r3, asl #6
	sub	ip, fp, #4
	add	r1, ip, r3
	mov	r3, r0
	add	r3, r1, r3
	ldr	r3, [r3, #0]
	ldr	r1, [fp, #-12]
	mov	r3, r1, lsr r3
	and	r3, r3, #1
	mov	r3, r3, asl #2
	orr	r2, r2, r3
	ldr	r3, [fp, #-8]
	ldr	r0, .L5+64
	mov	r3, r3, asl #6
	sub	ip, fp, #4
	add	r1, ip, r3
	mov	r3, r0
	add	r3, r1, r3
	ldr	r3, [r3, #0]
	ldr	r1, [fp, #-12]
	mov	r3, r1, lsr r3
	and	r3, r3, #1
	mov	r3, r3, asl #1
	orr	r2, r2, r3
	ldr	r3, [fp, #-8]
	ldr	r0, .L5+68
	mov	r3, r3, asl #6
	sub	ip, fp, #4
	add	r1, ip, r3
	mov	r3, r0
	add	r3, r1, r3
	ldr	r3, [r3, #0]
	ldr	r1, [fp, #-12]
	mov	r3, r1, lsr r3
	and	r3, r3, #1
	orr	r3, r2, r3
	str	r3, [fp, #-12]
	ldr	r3, [fp, #-12]
	mov	r3, r3, lsr #8
	and	r3, r3, #255
	ldr	r2, .L5+72
	ldrb	r3, [r2, r3]	@ zero_extendqisi2
	ldr	r2, [fp, #-12]
	eor	r3, r2, r3
	str	r3, [fp, #-12]
	ldr	r3, [fp, #-12]
	and	r3, r3, #255
	ldr	r2, .L5+76
	ldrb	r3, [r2, r3]	@ zero_extendqisi2
	mov	r3, r3, asl #8
	ldr	r2, [fp, #-12]
	eor	r3, r2, r3
	str	r3, [fp, #-12]
	ldr	r3, [fp, #-12]
	mov	r3, r3, lsr #7
	mov	r3, r3, asl #15
	mov	r3, r3, asl #16
	mov	r3, r3, lsr #16
	ldr	r2, [fp, #-12]
	mov	r2, r2, lsr #15
	and	r2, r2, #1
	mov	r2, r2, asl #14
	orr	r2, r3, r2
	ldr	r3, [fp, #-12]
	mov	r3, r3, lsr #14
	and	r3, r3, #1
	mov	r3, r3, asl #13
	orr	r2, r2, r3
	ldr	r3, [fp, #-12]
	mov	r3, r3, lsr #6
	and	r3, r3, #1
	mov	r3, r3, asl #12
	orr	r2, r2, r3
	ldr	r3, [fp, #-12]
	mov	r3, r3, lsr #5
	and	r3, r3, #1
	mov	r3, r3, asl #11
	orr	r2, r2, r3
	ldr	r3, [fp, #-12]
	mov	r3, r3, lsr #13
	and	r3, r3, #1
	mov	r3, r3, asl #10
	orr	r2, r2, r3
	ldr	r3, [fp, #-12]
	mov	r3, r3, lsr #12
	and	r3, r3, #1
	mov	r3, r3, asl #9
	orr	r2, r2, r3
	ldr	r3, [fp, #-12]
	mov	r3, r3, lsr #4
	and	r3, r3, #1
	mov	r3, r3, asl #8
	orr	r2, r2, r3
	ldr	r3, [fp, #-12]
	mov	r3, r3, lsr #11
	mov	r3, r3, asl #7
	and	r3, r3, #255
	orr	r2, r2, r3
	ldr	r3, [fp, #-12]
	mov	r3, r3, lsr #3
	and	r3, r3, #1
	mov	r3, r3, asl #6
	orr	r2, r2, r3
	ldr	r3, [fp, #-12]
	mov	r3, r3, lsr #10
	and	r3, r3, #1
	mov	r3, r3, asl #5
	orr	r2, r2, r3
	ldr	r3, [fp, #-12]
	mov	r3, r3, lsr #2
	and	r3, r3, #1
	mov	r3, r3, asl #4
	orr	r2, r2, r3
	ldr	r3, [fp, #-12]
	mov	r3, r3, lsr #9
	and	r3, r3, #1
	mov	r3, r3, asl #3
	orr	r2, r2, r3
	ldr	r3, [fp, #-12]
	mov	r3, r3, lsr #1
	and	r3, r3, #1
	mov	r3, r3, asl #2
	orr	r2, r2, r3
	ldr	r3, [fp, #-12]
	mov	r3, r3, lsr #8
	and	r3, r3, #1
	mov	r3, r3, asl #1
	orr	r2, r2, r3
	ldr	r3, [fp, #-12]
	and	r3, r3, #1
	orr	r3, r2, r3
	str	r3, [fp, #-12]
	ldr	r3, [fp, #-8]
	mov	r2, r3, asl #16
	ldr	r3, [fp, #-12]
	orr	r3, r2, r3
	mov	r0, r3
	sub	sp, fp, #4
	ldmfd	sp!, {fp, pc}
.L6:
	.align	2
.L5:
	.word	-526
	.word	.LC13
	.word	-460
	.word	-464
	.word	-468
	.word	-472
	.word	-476
	.word	-480
	.word	-484
	.word	-488
	.word	-492
	.word	-496
	.word	-500
	.word	-504
	.word	-508
	.word	-512
	.word	-516
	.word	-520
	.word	m1_address_0_7_xor
	.word	m1_address_8_15_xor
	.fnend
	.size	m1_address_scramble, .-m1_address_scramble
	.align	2
	.global	neogeo_cmc50_m1_decrypt
	.type	neogeo_cmc50_m1_decrypt, %function
neogeo_cmc50_m1_decrypt:
	.fnstart
	@ args = 0, pretend = 0, frame = 24
	@ frame_needed = 1, uses_anonymous_args = 0
	stmfd	sp!, {r4, fp, lr}
	.save {r4, fp, lr}
	.setfp fp, sp, #8
	add	fp, sp, #8
	.pad #28
	sub	sp, sp, #28
	ldr	r3, .L16
	ldr	r3, [r3, #0]
	add	r3, r3, #65536
	str	r3, [fp, #-24]
	ldr	r3, .L16+4
	ldr	r3, [r3, #0]
	mov	r0, r3
	bl	malloc
	mov	r3, r0
	str	r3, [fp, #-28]
	ldr	r0, [fp, #-24]
	mov	r1, #65536
	bl	generate_cs16
	mov	r3, r0
	strh	r3, [fp, #-30]	@ movhi
	ldr	r3, .L16+4
	ldr	r3, [r3, #0]
	str	r3, [fp, #-20]
	ldr	r3, .L16+8
	ldr	r3, [r3, #0]
	sub	r3, r3, #10
	cmp	r3, #24
	bhi	.L8
	ldr	r2, .L16+12
	mov	r2, r2, asl r3
	cmp	r2, #0
	blt	.L11
	ldr	r2, .L16+16
	mov	r2, r2, asl r3
	cmp	r2, #0
	blt	.L10
	mov	r2, #-939524096
	mov	r3, r2, asl r3
	cmp	r3, #0
	blt	.L9
	b	.L8
.L10:
	mov	r3, #131072
	str	r3, [fp, #-20]
	b	.L8
.L9:
	mov	r3, #262144
	str	r3, [fp, #-20]
	b	.L8
.L11:
	mov	r3, #524288
	str	r3, [fp, #-20]
	mov	r0, r0	@ nop
.L8:
	ldr	r3, [fp, #-28]
	cmp	r3, #0
	beq	.L12
	mov	r3, #0
	str	r3, [fp, #-16]
	b	.L13
.L14:
	ldr	r2, [fp, #-28]
	ldr	r3, [fp, #-16]
	add	r4, r2, r3
	ldrh	r3, [fp, #-30]
	ldr	r0, [fp, #-16]
	mov	r1, r3
	bl	m1_address_scramble
	mov	r3, r0
	ldr	r2, [fp, #-24]
	add	r3, r2, r3
	ldrb	r3, [r3, #0]	@ zero_extendqisi2
	strb	r3, [r4, #0]
	ldr	r3, [fp, #-16]
	add	r3, r3, #1
	str	r3, [fp, #-16]
.L13:
	ldr	r3, .L16+4
	ldr	r3, [r3, #0]
	ldr	r2, [fp, #-16]
	cmp	r2, r3
	bcc	.L14
	ldr	r1, [fp, #-24]
	ldr	r2, [fp, #-28]
	ldr	r3, [fp, #-20]
	mov	r0, r1
	mov	r1, r2
	mov	r2, r3
	bl	memcpy
	ldr	r0, [fp, #-28]
	bl	free
	mov	r3, #1
	b	.L15
.L12:
	mov	r3, #0
.L15:
	mov	r0, r3
	sub	sp, fp, #8
	ldmfd	sp!, {r4, fp, pc}
.L17:
	.align	2
.L16:
	.word	memory_region_cpu2
	.word	memory_length_cpu2
	.word	machine_init_type
	.word	66193280
	.word	67123200
	.fnend
	.size	neogeo_cmc50_m1_decrypt, .-neogeo_cmc50_m1_decrypt
	.section	.rodata
	.align	2
.LC11:
	.word	0
	.word	1048576
	.word	4
	.word	1048580
	.word	1048586
	.word	10
	.word	1048590
	.word	14
	.align	2
.LC12:
	.word	0
	.word	4
	.word	10
	.word	14
	.text
	.align	2
	.global	kof98_decrypt_68k
	.type	kof98_decrypt_68k, %function
kof98_decrypt_68k:
	.fnstart
	@ args = 0, pretend = 0, frame = 72
	@ frame_needed = 1, uses_anonymous_args = 0
	stmfd	sp!, {r4, fp, lr}
	.save {r4, fp, lr}
	.setfp fp, sp, #8
	add	fp, sp, #8
	.pad #76
	sub	sp, sp, #76
	ldr	r3, .L33
	ldr	r3, [r3, #0]
	str	r3, [fp, #-28]
	mov	r0, #2097152
	bl	malloc
	mov	r3, r0
	str	r3, [fp, #-32]
	ldr	r3, .L33+4
	sub	ip, fp, #64
	mov	r4, r3
	ldmia	r4!, {r0, r1, r2, r3}
	stmia	ip!, {r0, r1, r2, r3}
	ldmia	r4, {r0, r1, r2, r3}
	stmia	ip, {r0, r1, r2, r3}
	ldr	r3, .L33+8
	ldmia	r3, {r0, r1, r2, r3}
	sub	ip, fp, #80
	stmia	ip, {r0, r1, r2, r3}
	ldr	r3, [fp, #-32]
	cmp	r3, #0
	beq	.L19
	ldr	r2, [fp, #-32]
	ldr	r3, [fp, #-28]
	mov	ip, #2097152
	mov	r0, r2
	mov	r1, r3
	mov	r3, ip
	mov	r2, r3
	bl	memcpy
	mov	r3, #2048
	str	r3, [fp, #-16]
	b	.L20
.L31:
	mov	r3, #0
	str	r3, [fp, #-20]
	b	.L21
.L30:
	mov	r3, #0
	str	r3, [fp, #-24]
	b	.L22
.L23:
	ldr	r2, [fp, #-28]
	ldr	r1, [fp, #-16]
	ldr	r3, [fp, #-20]
	add	r1, r1, r3
	ldr	r3, [fp, #-24]
	add	r3, r1, r3
	add	r2, r2, r3
	ldr	r1, [fp, #-16]
	ldr	r3, [fp, #-20]
	add	r1, r1, r3
	ldr	r3, [fp, #-24]
	mov	r3, r3, lsr #1
	mvn	ip, #51
	mov	r3, r3, asl #2
	sub	r4, fp, #12
	add	r0, r4, r3
	mov	r3, ip
	add	r3, r0, r3
	ldr	r3, [r3, #0]
	add	r3, r1, r3
	add	r3, r3, #256
	ldr	r1, [fp, #-32]
	add	r3, r1, r3
	mov	ip, #2
	mov	r0, r2
	mov	r1, r3
	mov	r3, ip
	mov	r2, r3
	bl	memcpy
	ldr	r2, [fp, #-16]
	ldr	r3, [fp, #-20]
	add	r2, r2, r3
	ldr	r3, [fp, #-24]
	add	r3, r2, r3
	add	r3, r3, #256
	ldr	r2, [fp, #-28]
	add	r3, r2, r3
	mov	r2, r3
	ldr	r1, [fp, #-32]
	ldr	r0, [fp, #-16]
	ldr	r3, [fp, #-20]
	add	r0, r0, r3
	ldr	r3, [fp, #-24]
	mov	r3, r3, lsr #1
	mvn	lr, #51
	mov	r3, r3, asl #2
	sub	r4, fp, #12
	add	ip, r4, r3
	mov	r3, lr
	add	r3, ip, r3
	ldr	r3, [r3, #0]
	add	r3, r0, r3
	add	r3, r1, r3
	mov	ip, #2
	mov	r0, r2
	mov	r1, r3
	mov	r3, ip
	mov	r2, r3
	bl	memcpy
	ldr	r3, [fp, #-24]
	add	r3, r3, #2
	str	r3, [fp, #-24]
.L22:
	ldr	r3, [fp, #-24]
	cmp	r3, #15
	bls	.L23
	ldr	r2, [fp, #-16]
	ldr	r3, .L33+12
	cmp	r2, r3
	bls	.L24
	ldr	r2, [fp, #-16]
	ldr	r3, .L33+16
	cmp	r2, r3
	bhi	.L24
	mov	r3, #0
	str	r3, [fp, #-24]
	b	.L25
.L26:
	ldr	r2, [fp, #-28]
	ldr	r1, [fp, #-16]
	ldr	r3, [fp, #-20]
	add	r1, r1, r3
	ldr	r3, [fp, #-24]
	mvn	ip, #67
	mov	r3, r3, asl #2
	sub	lr, fp, #12
	add	r0, lr, r3
	mov	r3, ip
	add	r3, r0, r3
	ldr	r3, [r3, #0]
	add	r3, r1, r3
	add	r2, r2, r3
	ldr	r1, [fp, #-32]
	ldr	r0, [fp, #-16]
	ldr	r3, [fp, #-20]
	add	r0, r0, r3
	ldr	r3, [fp, #-24]
	mvn	lr, #67
	mov	r3, r3, asl #2
	sub	r4, fp, #12
	add	ip, r4, r3
	mov	r3, lr
	add	r3, ip, r3
	ldr	r3, [r3, #0]
	add	r3, r0, r3
	add	r3, r1, r3
	mov	ip, #2
	mov	r0, r2
	mov	r1, r3
	mov	r3, ip
	mov	r2, r3
	bl	memcpy
	ldr	r2, [fp, #-16]
	ldr	r3, [fp, #-20]
	add	r2, r2, r3
	ldr	r3, [fp, #-24]
	mvn	r0, #67
	mov	r3, r3, asl #2
	sub	ip, fp, #12
	add	r1, ip, r3
	mov	r3, r0
	add	r3, r1, r3
	ldr	r3, [r3, #0]
	add	r3, r2, r3
	add	r3, r3, #256
	ldr	r2, [fp, #-28]
	add	r3, r2, r3
	mov	r2, r3
	ldr	r1, [fp, #-16]
	ldr	r3, [fp, #-20]
	add	r1, r1, r3
	ldr	r3, [fp, #-24]
	mvn	ip, #67
	mov	r3, r3, asl #2
	sub	lr, fp, #12
	add	r0, lr, r3
	mov	r3, ip
	add	r3, r0, r3
	ldr	r3, [r3, #0]
	add	r3, r1, r3
	add	r3, r3, #256
	ldr	r1, [fp, #-32]
	add	r3, r1, r3
	mov	ip, #2
	mov	r0, r2
	mov	r1, r3
	mov	r3, ip
	mov	r2, r3
	bl	memcpy
	ldr	r3, [fp, #-24]
	add	r3, r3, #1
	str	r3, [fp, #-24]
.L25:
	ldr	r3, [fp, #-24]
	cmp	r3, #3
	bls	.L26
	b	.L27
.L24:
	ldr	r2, [fp, #-16]
	ldr	r3, .L33+16
	cmp	r2, r3
	bls	.L27
	mov	r3, #0
	str	r3, [fp, #-24]
	b	.L28
.L29:
	ldr	r2, [fp, #-28]
	ldr	r1, [fp, #-16]
	ldr	r3, [fp, #-20]
	add	r1, r1, r3
	ldr	r3, [fp, #-24]
	mvn	ip, #67
	mov	r3, r3, asl #2
	sub	r4, fp, #12
	add	r0, r4, r3
	mov	r3, ip
	add	r3, r0, r3
	ldr	r3, [r3, #0]
	add	r3, r1, r3
	add	r2, r2, r3
	ldr	r1, [fp, #-16]
	ldr	r3, [fp, #-20]
	add	r1, r1, r3
	ldr	r3, [fp, #-24]
	mvn	ip, #67
	mov	r3, r3, asl #2
	sub	lr, fp, #12
	add	r0, lr, r3
	mov	r3, ip
	add	r3, r0, r3
	ldr	r3, [r3, #0]
	add	r3, r1, r3
	add	r3, r3, #256
	ldr	r1, [fp, #-32]
	add	r3, r1, r3
	mov	ip, #2
	mov	r0, r2
	mov	r1, r3
	mov	r3, ip
	mov	r2, r3
	bl	memcpy
	ldr	r2, [fp, #-16]
	ldr	r3, [fp, #-20]
	add	r2, r2, r3
	ldr	r3, [fp, #-24]
	mvn	r0, #67
	mov	r3, r3, asl #2
	sub	r4, fp, #12
	add	r1, r4, r3
	mov	r3, r0
	add	r3, r1, r3
	ldr	r3, [r3, #0]
	add	r3, r2, r3
	add	r3, r3, #256
	ldr	r2, [fp, #-28]
	add	r3, r2, r3
	mov	r2, r3
	ldr	r1, [fp, #-32]
	ldr	r0, [fp, #-16]
	ldr	r3, [fp, #-20]
	add	r0, r0, r3
	ldr	r3, [fp, #-24]
	mvn	lr, #67
	mov	r3, r3, asl #2
	sub	r4, fp, #12
	add	ip, r4, r3
	mov	r3, lr
	add	r3, ip, r3
	ldr	r3, [r3, #0]
	add	r3, r0, r3
	add	r3, r1, r3
	mov	ip, #2
	mov	r0, r2
	mov	r1, r3
	mov	r3, ip
	mov	r2, r3
	bl	memcpy
	ldr	r3, [fp, #-24]
	add	r3, r3, #1
	str	r3, [fp, #-24]
.L28:
	ldr	r3, [fp, #-24]
	cmp	r3, #3
	bls	.L29
.L27:
	ldr	r3, [fp, #-20]
	add	r3, r3, #16
	str	r3, [fp, #-20]
.L21:
	ldr	r3, [fp, #-20]
	cmp	r3, #255
	bls	.L30
	ldr	r2, [fp, #-28]
	ldr	r3, [fp, #-16]
	add	r2, r2, r3
	ldr	r1, [fp, #-32]
	ldr	r3, [fp, #-16]
	add	r3, r1, r3
	mov	ip, #2
	mov	r0, r2
	mov	r1, r3
	mov	r3, ip
	mov	r2, r3
	bl	memcpy
	ldr	r3, [fp, #-16]
	add	r3, r3, #2
	ldr	r2, [fp, #-28]
	add	r3, r2, r3
	mov	r2, r3
	ldr	r3, [fp, #-16]
	add	r3, r3, #1048576
	ldr	r1, [fp, #-32]
	add	r3, r1, r3
	mov	ip, #2
	mov	r0, r2
	mov	r1, r3
	mov	r3, ip
	mov	r2, r3
	bl	memcpy
	ldr	r3, [fp, #-16]
	add	r3, r3, #256
	ldr	r2, [fp, #-28]
	add	r3, r2, r3
	mov	r2, r3
	ldr	r3, [fp, #-16]
	add	r3, r3, #256
	ldr	r1, [fp, #-32]
	add	r3, r1, r3
	mov	ip, #2
	mov	r0, r2
	mov	r1, r3
	mov	r3, ip
	mov	r2, r3
	bl	memcpy
	ldr	r3, [fp, #-16]
	add	r3, r3, #256
	add	r3, r3, #2
	ldr	r2, [fp, #-28]
	add	r3, r2, r3
	mov	r2, r3
	ldr	r3, [fp, #-16]
	add	r3, r3, #1048576
	add	r3, r3, #256
	ldr	r1, [fp, #-32]
	add	r3, r1, r3
	mov	ip, #2
	mov	r0, r2
	mov	r1, r3
	mov	r3, ip
	mov	r2, r3
	bl	memcpy
	ldr	r3, [fp, #-16]
	add	r3, r3, #512
	str	r3, [fp, #-16]
.L20:
	ldr	r2, [fp, #-16]
	ldr	r3, .L33+20
	cmp	r2, r3
	bls	.L31
	ldr	r3, [fp, #-28]
	add	r2, r3, #1048576
	ldr	r3, [fp, #-28]
	add	r3, r3, #2097152
	mov	ip, #4194304
	mov	r0, r2
	mov	r1, r3
	mov	r3, ip
	mov	r2, r3
	bl	memcpy
	ldr	r0, [fp, #-32]
	bl	free
	mov	r3, #1
	b	.L32
.L19:
	mov	r3, #0
.L32:
	mov	r0, r3
	sub	sp, fp, #8
	ldmfd	sp!, {r4, fp, pc}
.L34:
	.align	2
.L33:
	.word	memory_region_cpu1
	.word	.LC11
	.word	.LC12
	.word	524287
	.word	786431
	.word	1048575
	.fnend
	.size	kof98_decrypt_68k, .-kof98_decrypt_68k
	.align	2
	.global	kof99_decrypt_68k
	.type	kof99_decrypt_68k, %function
kof99_decrypt_68k:
	.fnstart
	@ args = 0, pretend = 0, frame = 2064
	@ frame_needed = 1, uses_anonymous_args = 0
	stmfd	sp!, {fp, lr}
	.save {fp, lr}
	.setfp fp, sp, #4
	add	fp, sp, #4
	.pad #2064
	sub	sp, sp, #2064
	ldr	r3, .L44
	ldr	r3, [r3, #0]
	add	r3, r3, #1048576
	str	r3, [fp, #-16]
	mov	r3, #0
	str	r3, [fp, #-8]
	b	.L36
.L37:
	ldr	r3, [fp, #-8]
	mov	r3, r3, asl #1
	ldr	r2, [fp, #-16]
	add	r3, r2, r3
	ldr	r2, [fp, #-8]
	mov	r2, r2, asl #1
	ldr	r1, [fp, #-16]
	add	r2, r1, r2
	ldrh	r2, [r2, #0]
	mov	r2, r2, lsr #13
	mov	r2, r2, asl #16
	mov	r2, r2, lsr #16
	mov	r2, r2, asl #15
	mov	r2, r2, asl #16
	mov	r1, r2, lsr #16
	ldr	r2, [fp, #-8]
	mov	r2, r2, asl #1
	ldr	r0, [fp, #-16]
	add	r2, r0, r2
	ldrh	r2, [r2, #0]
	mov	r2, r2, lsr #7
	mov	r2, r2, asl #16
	mov	r2, r2, lsr #16
	and	r2, r2, #1
	mov	r2, r2, asl #14
	mov	r2, r2, asl #16
	mov	r2, r2, lsr #16
	orr	r2, r1, r2
	mov	r2, r2, asl #16
	mov	r1, r2, lsr #16
	ldr	r2, [fp, #-8]
	mov	r2, r2, asl #1
	ldr	r0, [fp, #-16]
	add	r2, r0, r2
	ldrh	r2, [r2, #0]
	mov	r2, r2, lsr #3
	mov	r2, r2, asl #16
	mov	r2, r2, lsr #16
	and	r2, r2, #1
	mov	r2, r2, asl #13
	mov	r2, r2, asl #16
	mov	r2, r2, lsr #16
	orr	r2, r1, r2
	mov	r2, r2, asl #16
	mov	r1, r2, lsr #16
	ldr	r2, [fp, #-8]
	mov	r2, r2, asl #1
	ldr	r0, [fp, #-16]
	add	r2, r0, r2
	ldrh	r2, [r2, #0]
	and	r2, r2, #1
	mov	r2, r2, asl #12
	mov	r2, r2, asl #16
	mov	r2, r2, lsr #16
	orr	r2, r1, r2
	mov	r2, r2, asl #16
	mov	r1, r2, lsr #16
	ldr	r2, [fp, #-8]
	mov	r2, r2, asl #1
	ldr	r0, [fp, #-16]
	add	r2, r0, r2
	ldrh	r2, [r2, #0]
	mov	r2, r2, lsr #9
	mov	r2, r2, asl #16
	mov	r2, r2, lsr #16
	and	r2, r2, #1
	mov	r2, r2, asl #11
	mov	r2, r2, asl #16
	mov	r2, r2, lsr #16
	orr	r2, r1, r2
	mov	r2, r2, asl #16
	mov	r1, r2, lsr #16
	ldr	r2, [fp, #-8]
	mov	r2, r2, asl #1
	ldr	r0, [fp, #-16]
	add	r2, r0, r2
	ldrh	r2, [r2, #0]
	mov	r2, r2, lsr #4
	mov	r2, r2, asl #16
	mov	r2, r2, lsr #16
	and	r2, r2, #1
	mov	r2, r2, asl #10
	mov	r2, r2, asl #16
	mov	r2, r2, lsr #16
	orr	r2, r1, r2
	mov	r2, r2, asl #16
	mov	r1, r2, lsr #16
	ldr	r2, [fp, #-8]
	mov	r2, r2, asl #1
	ldr	r0, [fp, #-16]
	add	r2, r0, r2
	ldrh	r2, [r2, #0]
	mov	r2, r2, lsr #5
	mov	r2, r2, asl #16
	mov	r2, r2, lsr #16
	and	r2, r2, #1
	mov	r2, r2, asl #9
	mov	r2, r2, asl #16
	mov	r2, r2, lsr #16
	orr	r2, r1, r2
	mov	r2, r2, asl #16
	mov	r1, r2, lsr #16
	ldr	r2, [fp, #-8]
	mov	r2, r2, asl #1
	ldr	r0, [fp, #-16]
	add	r2, r0, r2
	ldrh	r2, [r2, #0]
	mov	r2, r2, lsr #6
	mov	r2, r2, asl #16
	mov	r2, r2, lsr #16
	and	r2, r2, #1
	mov	r2, r2, asl #8
	mov	r2, r2, asl #16
	mov	r2, r2, lsr #16
	orr	r2, r1, r2
	mov	r2, r2, asl #16
	mov	r1, r2, lsr #16
	ldr	r2, [fp, #-8]
	mov	r2, r2, asl #1
	ldr	r0, [fp, #-16]
	add	r2, r0, r2
	ldrh	r2, [r2, #0]
	mov	r2, r2, lsr #1
	mov	r2, r2, asl #16
	mov	r2, r2, lsr #16
	mov	r2, r2, asl #7
	mov	r2, r2, asl #16
	mov	r2, r2, lsr #16
	and	r2, r2, #255
	mov	r2, r2, asl #16
	mov	r2, r2, lsr #16
	orr	r2, r1, r2
	mov	r2, r2, asl #16
	mov	r1, r2, lsr #16
	ldr	r2, [fp, #-8]
	mov	r2, r2, asl #1
	ldr	r0, [fp, #-16]
	add	r2, r0, r2
	ldrh	r2, [r2, #0]
	mov	r2, r2, lsr #12
	mov	r2, r2, asl #16
	mov	r2, r2, lsr #16
	and	r2, r2, #1
	mov	r2, r2, asl #6
	mov	r2, r2, asl #16
	mov	r2, r2, lsr #16
	orr	r2, r1, r2
	mov	r2, r2, asl #16
	mov	r1, r2, lsr #16
	ldr	r2, [fp, #-8]
	mov	r2, r2, asl #1
	ldr	r0, [fp, #-16]
	add	r2, r0, r2
	ldrh	r2, [r2, #0]
	mov	r2, r2, lsr #8
	mov	r2, r2, asl #16
	mov	r2, r2, lsr #16
	and	r2, r2, #1
	mov	r2, r2, asl #5
	mov	r2, r2, asl #16
	mov	r2, r2, lsr #16
	orr	r2, r1, r2
	mov	r2, r2, asl #16
	mov	r1, r2, lsr #16
	ldr	r2, [fp, #-8]
	mov	r2, r2, asl #1
	ldr	r0, [fp, #-16]
	add	r2, r0, r2
	ldrh	r2, [r2, #0]
	mov	r2, r2, lsr #14
	mov	r2, r2, asl #16
	mov	r2, r2, lsr #16
	and	r2, r2, #1
	mov	r2, r2, asl #4
	mov	r2, r2, asl #16
	mov	r2, r2, lsr #16
	orr	r2, r1, r2
	mov	r2, r2, asl #16
	mov	r1, r2, lsr #16
	ldr	r2, [fp, #-8]
	mov	r2, r2, asl #1
	ldr	r0, [fp, #-16]
	add	r2, r0, r2
	ldrh	r2, [r2, #0]
	mov	r2, r2, lsr #10
	mov	r2, r2, asl #16
	mov	r2, r2, lsr #16
	and	r2, r2, #1
	mov	r2, r2, asl #3
	mov	r2, r2, asl #16
	mov	r2, r2, lsr #16
	orr	r2, r1, r2
	mov	r2, r2, asl #16
	mov	r1, r2, lsr #16
	ldr	r2, [fp, #-8]
	mov	r2, r2, asl #1
	ldr	r0, [fp, #-16]
	add	r2, r0, r2
	ldrh	r2, [r2, #0]
	mov	r2, r2, lsr #11
	mov	r2, r2, asl #16
	mov	r2, r2, lsr #16
	and	r2, r2, #1
	mov	r2, r2, asl #2
	mov	r2, r2, asl #16
	mov	r2, r2, lsr #16
	orr	r2, r1, r2
	mov	r2, r2, asl #16
	mov	r1, r2, lsr #16
	ldr	r2, [fp, #-8]
	mov	r2, r2, asl #1
	ldr	r0, [fp, #-16]
	add	r2, r0, r2
	ldrh	r2, [r2, #0]
	mov	r2, r2, lsr #2
	mov	r2, r2, asl #16
	mov	r2, r2, lsr #16
	and	r2, r2, #1
	mov	r2, r2, asl #1
	mov	r2, r2, asl #16
	mov	r2, r2, lsr #16
	orr	r2, r1, r2
	mov	r2, r2, asl #16
	mov	r1, r2, lsr #16
	ldr	r2, [fp, #-8]
	mov	r2, r2, asl #1
	ldr	r0, [fp, #-16]
	add	r2, r0, r2
	ldrh	r2, [r2, #0]
	mov	r2, r2, lsr #15
	mov	r2, r2, asl #16
	mov	r2, r2, lsr #16
	mov	r2, r2, asl #16
	mov	r2, r2, lsr #16
	orr	r2, r1, r2
	mov	r2, r2, asl #16
	mov	r2, r2, lsr #16
	mov	r2, r2, asl #16
	mov	r2, r2, lsr #16
	strh	r2, [r3, #0]	@ movhi
	ldr	r3, [fp, #-8]
	add	r3, r3, #1
	str	r3, [fp, #-8]
.L36:
	ldr	r2, [fp, #-8]
	ldr	r3, .L44+4
	cmp	r2, r3
	bls	.L37
	mov	r3, #0
	str	r3, [fp, #-8]
	b	.L38
.L41:
	sub	r3, fp, #2048
	sub	r3, r3, #4
	sub	r3, r3, #12
	ldr	r1, [fp, #-16]
	ldr	r2, [fp, #-8]
	mov	r2, r2, asl #1
	add	r1, r1, r2
	mov	r2, r3
	mov	r3, r1
	mov	ip, #2048
	mov	r0, r2
	mov	r1, r3
	mov	r3, ip
	mov	r2, r3
	bl	memcpy
	mov	r3, #0
	str	r3, [fp, #-12]
	b	.L39
.L40:
	ldr	r2, [fp, #-8]
	ldr	r3, [fp, #-12]
	add	r3, r2, r3
	mov	r3, r3, asl #1
	ldr	r2, [fp, #-16]
	add	r2, r2, r3
	ldr	r1, [fp, #-12]
	ldr	r3, .L44+8
	and	r3, r1, r3
	ldr	r1, [fp, #-12]
	mov	r1, r1, lsr #6
	and	r1, r1, #1
	mov	r1, r1, asl #9
	orr	r1, r3, r1
	ldr	r3, [fp, #-12]
	mov	r3, r3, lsr #2
	and	r3, r3, #1
	mov	r3, r3, asl #8
	orr	r1, r1, r3
	ldr	r3, [fp, #-12]
	mov	r3, r3, lsr #4
	mov	r3, r3, asl #7
	and	r3, r3, #255
	orr	r1, r1, r3
	ldr	r3, [fp, #-12]
	mov	r3, r3, lsr #9
	and	r3, r3, #1
	mov	r3, r3, asl #6
	orr	r1, r1, r3
	ldr	r3, [fp, #-12]
	mov	r3, r3, lsr #8
	and	r3, r3, #1
	mov	r3, r3, asl #5
	orr	r1, r1, r3
	ldr	r3, [fp, #-12]
	mov	r3, r3, lsr #3
	and	r3, r3, #1
	mov	r3, r3, asl #4
	orr	r1, r1, r3
	ldr	r3, [fp, #-12]
	mov	r3, r3, lsr #1
	and	r3, r3, #1
	mov	r3, r3, asl #3
	orr	r1, r1, r3
	ldr	r3, [fp, #-12]
	mov	r3, r3, lsr #7
	and	r3, r3, #1
	mov	r3, r3, asl #2
	orr	r1, r1, r3
	ldr	r3, [fp, #-12]
	and	r3, r3, #1
	mov	r3, r3, asl #1
	orr	r1, r1, r3
	ldr	r3, [fp, #-12]
	mov	r3, r3, lsr #5
	and	r3, r3, #1
	orr	r3, r1, r3
	ldr	r0, .L44+12
	mov	r3, r3, asl #1
	sub	ip, fp, #4
	add	r1, ip, r3
	mov	r3, r0
	add	r3, r1, r3
	ldrh	r3, [r3, #0]
	strh	r3, [r2, #0]	@ movhi
	ldr	r3, [fp, #-12]
	add	r3, r3, #1
	str	r3, [fp, #-12]
.L39:
	ldr	r2, [fp, #-12]
	ldr	r3, .L44+16
	cmp	r2, r3
	bls	.L40
	ldr	r3, [fp, #-8]
	add	r3, r3, #1024
	str	r3, [fp, #-8]
.L38:
	ldr	r2, [fp, #-8]
	ldr	r3, .L44+20
	cmp	r2, r3
	bls	.L41
	ldr	r3, .L44
	ldr	r3, [r3, #0]
	str	r3, [fp, #-16]
	mov	r3, #0
	str	r3, [fp, #-8]
	b	.L42
.L43:
	ldr	r3, [fp, #-8]
	mov	r3, r3, asl #1
	ldr	r2, [fp, #-16]
	add	r2, r2, r3
	ldr	r3, [fp, #-8]
	and	r1, r3, #16515072
	ldr	r3, [fp, #-8]
	mov	r3, r3, lsr #11
	and	r3, r3, #1
	mov	r3, r3, asl #17
	orr	r1, r1, r3
	ldr	r3, [fp, #-8]
	mov	r3, r3, lsr #6
	and	r3, r3, #1
	mov	r3, r3, asl #16
	orr	r1, r1, r3
	ldr	r3, [fp, #-8]
	mov	r3, r3, lsr #14
	mov	r3, r3, asl #15
	mov	r3, r3, asl #16
	mov	r3, r3, lsr #16
	orr	r1, r1, r3
	ldr	r3, [fp, #-8]
	mov	r3, r3, lsr #17
	and	r3, r3, #1
	mov	r3, r3, asl #14
	orr	r1, r1, r3
	ldr	r3, [fp, #-8]
	mov	r3, r3, lsr #16
	and	r3, r3, #1
	mov	r3, r3, asl #13
	orr	r1, r1, r3
	ldr	r3, [fp, #-8]
	mov	r3, r3, lsr #5
	and	r3, r3, #1
	mov	r3, r3, asl #12
	orr	r1, r1, r3
	ldr	r3, [fp, #-8]
	mov	r3, r3, lsr #8
	and	r3, r3, #1
	mov	r3, r3, asl #11
	orr	r1, r1, r3
	ldr	r3, [fp, #-8]
	and	r3, r3, #1024
	orr	r1, r1, r3
	ldr	r3, [fp, #-8]
	mov	r3, r3, lsr #12
	and	r3, r3, #1
	mov	r3, r3, asl #9
	orr	r1, r1, r3
	ldr	r3, [fp, #-8]
	and	r3, r3, #1
	mov	r3, r3, asl #8
	orr	r1, r1, r3
	ldr	r3, [fp, #-8]
	mov	r3, r3, lsr #4
	mov	r3, r3, asl #7
	and	r3, r3, #255
	orr	r1, r1, r3
	ldr	r3, [fp, #-8]
	mov	r3, r3, lsr #3
	and	r3, r3, #1
	mov	r3, r3, asl #6
	orr	r1, r1, r3
	ldr	r3, [fp, #-8]
	mov	r3, r3, lsr #2
	and	r3, r3, #1
	mov	r3, r3, asl #5
	orr	r1, r1, r3
	ldr	r3, [fp, #-8]
	mov	r3, r3, lsr #7
	and	r3, r3, #1
	mov	r3, r3, asl #4
	orr	r1, r1, r3
	ldr	r3, [fp, #-8]
	mov	r3, r3, lsr #9
	and	r3, r3, #1
	mov	r3, r3, asl #3
	orr	r1, r1, r3
	ldr	r3, [fp, #-8]
	mov	r3, r3, lsr #15
	and	r3, r3, #1
	mov	r3, r3, asl #2
	orr	r1, r1, r3
	ldr	r3, [fp, #-8]
	mov	r3, r3, lsr #13
	and	r3, r3, #1
	mov	r3, r3, asl #1
	orr	r1, r1, r3
	ldr	r3, [fp, #-8]
	mov	r3, r3, lsr #1
	and	r3, r3, #1
	orr	r3, r1, r3
	add	r3, r3, #3670016
	mov	r3, r3, asl #1
	ldr	r1, [fp, #-16]
	add	r3, r1, r3
	ldrh	r3, [r3, #0]
	strh	r3, [r2, #0]	@ movhi
	ldr	r3, [fp, #-8]
	add	r3, r3, #1
	str	r3, [fp, #-8]
.L42:
	ldr	r2, [fp, #-8]
	ldr	r3, .L44+24
	cmp	r2, r3
	bls	.L43
	sub	sp, fp, #4
	ldmfd	sp!, {fp, pc}
.L45:
	.align	2
.L44:
	.word	memory_region_cpu1
	.word	4194303
	.word	16776192
	.word	-2060
	.word	1023
	.word	3145727
	.word	393215
	.fnend
	.size	kof99_decrypt_68k, .-kof99_decrypt_68k
	.align	2
	.global	garou_decrypt_68k
	.type	garou_decrypt_68k, %function
garou_decrypt_68k:
	.fnstart
	@ args = 0, pretend = 0, frame = 32784
	@ frame_needed = 1, uses_anonymous_args = 0
	stmfd	sp!, {fp, lr}
	.save {fp, lr}
	.setfp fp, sp, #4
	add	fp, sp, #4
	.pad #32768
	sub	sp, sp, #32768
	.pad #16
	sub	sp, sp, #16
	ldr	r3, .L55
	ldr	r3, [r3, #0]
	add	r3, r3, #1048576
	str	r3, [fp, #-16]
	mov	r3, #0
	str	r3, [fp, #-8]
	b	.L47
.L48:
	ldr	r3, [fp, #-8]
	mov	r3, r3, asl #1
	ldr	r2, [fp, #-16]
	add	r3, r2, r3
	ldr	r2, [fp, #-8]
	mov	r2, r2, asl #1
	ldr	r1, [fp, #-16]
	add	r2, r1, r2
	ldrh	r2, [r2, #0]
	mov	r2, r2, lsr #13
	mov	r2, r2, asl #16
	mov	r2, r2, lsr #16
	mov	r2, r2, asl #15
	mov	r2, r2, asl #16
	mov	r1, r2, lsr #16
	ldr	r2, [fp, #-8]
	mov	r2, r2, asl #1
	ldr	r0, [fp, #-16]
	add	r2, r0, r2
	ldrh	r2, [r2, #0]
	mov	r2, r2, lsr #12
	mov	r2, r2, asl #16
	mov	r2, r2, lsr #16
	and	r2, r2, #1
	mov	r2, r2, asl #14
	mov	r2, r2, asl #16
	mov	r2, r2, lsr #16
	orr	r2, r1, r2
	mov	r2, r2, asl #16
	mov	r1, r2, lsr #16
	ldr	r2, [fp, #-8]
	mov	r2, r2, asl #1
	ldr	r0, [fp, #-16]
	add	r2, r0, r2
	ldrh	r2, [r2, #0]
	mov	r2, r2, lsr #14
	mov	r2, r2, asl #16
	mov	r2, r2, lsr #16
	and	r2, r2, #1
	mov	r2, r2, asl #13
	mov	r2, r2, asl #16
	mov	r2, r2, lsr #16
	orr	r2, r1, r2
	mov	r2, r2, asl #16
	mov	r1, r2, lsr #16
	ldr	r2, [fp, #-8]
	mov	r2, r2, asl #1
	ldr	r0, [fp, #-16]
	add	r2, r0, r2
	ldrh	r2, [r2, #0]
	mov	r2, r2, lsr #10
	mov	r2, r2, asl #16
	mov	r2, r2, lsr #16
	and	r2, r2, #1
	mov	r2, r2, asl #12
	mov	r2, r2, asl #16
	mov	r2, r2, lsr #16
	orr	r2, r1, r2
	mov	r2, r2, asl #16
	mov	r1, r2, lsr #16
	ldr	r2, [fp, #-8]
	mov	r2, r2, asl #1
	ldr	r0, [fp, #-16]
	add	r2, r0, r2
	ldrh	r2, [r2, #0]
	mov	r2, r2, lsr #8
	mov	r2, r2, asl #16
	mov	r2, r2, lsr #16
	and	r2, r2, #1
	mov	r2, r2, asl #11
	mov	r2, r2, asl #16
	mov	r2, r2, lsr #16
	orr	r2, r1, r2
	mov	r2, r2, asl #16
	mov	r1, r2, lsr #16
	ldr	r2, [fp, #-8]
	mov	r2, r2, asl #1
	ldr	r0, [fp, #-16]
	add	r2, r0, r2
	ldrh	r2, [r2, #0]
	mov	r2, r2, lsr #2
	mov	r2, r2, asl #16
	mov	r2, r2, lsr #16
	and	r2, r2, #1
	mov	r2, r2, asl #10
	mov	r2, r2, asl #16
	mov	r2, r2, lsr #16
	orr	r2, r1, r2
	mov	r2, r2, asl #16
	mov	r1, r2, lsr #16
	ldr	r2, [fp, #-8]
	mov	r2, r2, asl #1
	ldr	r0, [fp, #-16]
	add	r2, r0, r2
	ldrh	r2, [r2, #0]
	mov	r2, r2, lsr #3
	mov	r2, r2, asl #16
	mov	r2, r2, lsr #16
	and	r2, r2, #1
	mov	r2, r2, asl #9
	mov	r2, r2, asl #16
	mov	r2, r2, lsr #16
	orr	r2, r1, r2
	mov	r2, r2, asl #16
	mov	r1, r2, lsr #16
	ldr	r2, [fp, #-8]
	mov	r2, r2, asl #1
	ldr	r0, [fp, #-16]
	add	r2, r0, r2
	ldrh	r2, [r2, #0]
	mov	r2, r2, lsr #1
	mov	r2, r2, asl #16
	mov	r2, r2, lsr #16
	and	r2, r2, #1
	mov	r2, r2, asl #8
	mov	r2, r2, asl #16
	mov	r2, r2, lsr #16
	orr	r2, r1, r2
	mov	r2, r2, asl #16
	mov	r1, r2, lsr #16
	ldr	r2, [fp, #-8]
	mov	r2, r2, asl #1
	ldr	r0, [fp, #-16]
	add	r2, r0, r2
	ldrh	r2, [r2, #0]
	mov	r2, r2, lsr #5
	mov	r2, r2, asl #16
	mov	r2, r2, lsr #16
	mov	r2, r2, asl #7
	mov	r2, r2, asl #16
	mov	r2, r2, lsr #16
	and	r2, r2, #255
	mov	r2, r2, asl #16
	mov	r2, r2, lsr #16
	orr	r2, r1, r2
	mov	r2, r2, asl #16
	mov	r1, r2, lsr #16
	ldr	r2, [fp, #-8]
	mov	r2, r2, asl #1
	ldr	r0, [fp, #-16]
	add	r2, r0, r2
	ldrh	r2, [r2, #0]
	mov	r2, r2, lsr #9
	mov	r2, r2, asl #16
	mov	r2, r2, lsr #16
	and	r2, r2, #1
	mov	r2, r2, asl #6
	mov	r2, r2, asl #16
	mov	r2, r2, lsr #16
	orr	r2, r1, r2
	mov	r2, r2, asl #16
	mov	r1, r2, lsr #16
	ldr	r2, [fp, #-8]
	mov	r2, r2, asl #1
	ldr	r0, [fp, #-16]
	add	r2, r0, r2
	ldrh	r2, [r2, #0]
	mov	r2, r2, lsr #11
	mov	r2, r2, asl #16
	mov	r2, r2, lsr #16
	and	r2, r2, #1
	mov	r2, r2, asl #5
	mov	r2, r2, asl #16
	mov	r2, r2, lsr #16
	orr	r2, r1, r2
	mov	r2, r2, asl #16
	mov	r1, r2, lsr #16
	ldr	r2, [fp, #-8]
	mov	r2, r2, asl #1
	ldr	r0, [fp, #-16]
	add	r2, r0, r2
	ldrh	r2, [r2, #0]
	mov	r2, r2, lsr #4
	mov	r2, r2, asl #16
	mov	r2, r2, lsr #16
	and	r2, r2, #1
	mov	r2, r2, asl #4
	mov	r2, r2, asl #16
	mov	r2, r2, lsr #16
	orr	r2, r1, r2
	mov	r2, r2, asl #16
	mov	r1, r2, lsr #16
	ldr	r2, [fp, #-8]
	mov	r2, r2, asl #1
	ldr	r0, [fp, #-16]
	add	r2, r0, r2
	ldrh	r2, [r2, #0]
	mov	r2, r2, lsr #15
	mov	r2, r2, asl #16
	mov	r2, r2, lsr #16
	and	r2, r2, #1
	mov	r2, r2, asl #3
	mov	r2, r2, asl #16
	mov	r2, r2, lsr #16
	orr	r2, r1, r2
	mov	r2, r2, asl #16
	mov	r1, r2, lsr #16
	ldr	r2, [fp, #-8]
	mov	r2, r2, asl #1
	ldr	r0, [fp, #-16]
	add	r2, r0, r2
	ldrh	r2, [r2, #0]
	and	r2, r2, #1
	mov	r2, r2, asl #2
	mov	r2, r2, asl #16
	mov	r2, r2, lsr #16
	orr	r2, r1, r2
	mov	r2, r2, asl #16
	mov	r1, r2, lsr #16
	ldr	r2, [fp, #-8]
	mov	r2, r2, asl #1
	ldr	r0, [fp, #-16]
	add	r2, r0, r2
	ldrh	r2, [r2, #0]
	mov	r2, r2, lsr #6
	mov	r2, r2, asl #16
	mov	r2, r2, lsr #16
	and	r2, r2, #1
	mov	r2, r2, asl #1
	mov	r2, r2, asl #16
	mov	r2, r2, lsr #16
	orr	r2, r1, r2
	mov	r2, r2, asl #16
	mov	r1, r2, lsr #16
	ldr	r2, [fp, #-8]
	mov	r2, r2, asl #1
	ldr	r0, [fp, #-16]
	add	r2, r0, r2
	ldrh	r2, [r2, #0]
	mov	r2, r2, lsr #7
	mov	r2, r2, asl #16
	mov	r2, r2, lsr #16
	mov	r2, r2, asl #16
	mov	r2, r2, lsr #16
	and	r2, r2, #1
	mov	r2, r2, asl #16
	mov	r2, r2, lsr #16
	orr	r2, r1, r2
	mov	r2, r2, asl #16
	mov	r2, r2, lsr #16
	mov	r2, r2, asl #16
	mov	r2, r2, lsr #16
	strh	r2, [r3, #0]	@ movhi
	ldr	r3, [fp, #-8]
	add	r3, r3, #1
	str	r3, [fp, #-8]
.L47:
	ldr	r2, [fp, #-8]
	ldr	r3, .L55+4
	cmp	r2, r3
	bls	.L48
	ldr	r3, .L55
	ldr	r3, [r3, #0]
	str	r3, [fp, #-16]
	mov	r3, #0
	str	r3, [fp, #-8]
	b	.L49
.L50:
	ldr	r3, [fp, #-8]
	mov	r3, r3, asl #1
	ldr	r2, [fp, #-16]
	add	r2, r2, r3
	ldr	r3, [fp, #-8]
	and	r1, r3, #16515072
	ldr	r3, [fp, #-8]
	mov	r3, r3, lsr #4
	and	r3, r3, #1
	mov	r3, r3, asl #17
	orr	r1, r1, r3
	ldr	r3, [fp, #-8]
	mov	r3, r3, lsr #5
	and	r3, r3, #1
	mov	r3, r3, asl #16
	orr	r1, r1, r3
	ldr	r3, [fp, #-8]
	mov	r3, r3, lsr #16
	mov	r3, r3, asl #15
	mov	r3, r3, asl #16
	mov	r3, r3, lsr #16
	orr	r1, r1, r3
	ldr	r3, [fp, #-8]
	and	r3, r3, #16384
	orr	r1, r1, r3
	ldr	r3, [fp, #-8]
	mov	r3, r3, lsr #7
	and	r3, r3, #1
	mov	r3, r3, asl #13
	orr	r1, r1, r3
	ldr	r3, [fp, #-8]
	mov	r3, r3, lsr #9
	and	r3, r3, #1
	mov	r3, r3, asl #12
	orr	r1, r1, r3
	ldr	r3, [fp, #-8]
	mov	r3, r3, lsr #6
	and	r3, r3, #1
	mov	r3, r3, asl #11
	orr	r1, r1, r3
	ldr	r3, [fp, #-8]
	mov	r3, r3, lsr #13
	and	r3, r3, #1
	mov	r3, r3, asl #10
	orr	r1, r1, r3
	ldr	r3, [fp, #-8]
	mov	r3, r3, lsr #17
	and	r3, r3, #1
	mov	r3, r3, asl #9
	orr	r1, r1, r3
	ldr	r3, [fp, #-8]
	mov	r3, r3, lsr #15
	and	r3, r3, #1
	mov	r3, r3, asl #8
	orr	r1, r1, r3
	ldr	r3, [fp, #-8]
	mov	r3, r3, lsr #3
	mov	r3, r3, asl #7
	and	r3, r3, #255
	orr	r1, r1, r3
	ldr	r3, [fp, #-8]
	mov	r3, r3, lsr #1
	and	r3, r3, #1
	mov	r3, r3, asl #6
	orr	r1, r1, r3
	ldr	r3, [fp, #-8]
	mov	r3, r3, lsr #2
	and	r3, r3, #1
	mov	r3, r3, asl #5
	orr	r1, r1, r3
	ldr	r3, [fp, #-8]
	mov	r3, r3, lsr #12
	and	r3, r3, #1
	mov	r3, r3, asl #4
	orr	r1, r1, r3
	ldr	r3, [fp, #-8]
	mov	r3, r3, lsr #11
	and	r3, r3, #1
	mov	r3, r3, asl #3
	orr	r1, r1, r3
	ldr	r3, [fp, #-8]
	mov	r3, r3, lsr #8
	and	r3, r3, #1
	mov	r3, r3, asl #2
	orr	r1, r1, r3
	ldr	r3, [fp, #-8]
	mov	r3, r3, lsr #10
	and	r3, r3, #1
	mov	r3, r3, asl #1
	orr	r1, r1, r3
	ldr	r3, [fp, #-8]
	and	r3, r3, #1
	orr	r3, r1, r3
	add	r3, r3, #3702784
	mov	r3, r3, asl #1
	ldr	r1, [fp, #-16]
	add	r3, r1, r3
	ldrh	r3, [r3, #0]
	strh	r3, [r2, #0]	@ movhi
	ldr	r3, [fp, #-8]
	add	r3, r3, #1
	str	r3, [fp, #-8]
.L49:
	ldr	r2, [fp, #-8]
	ldr	r3, .L55+8
	cmp	r2, r3
	bls	.L50
	ldr	r3, .L55
	ldr	r3, [r3, #0]
	add	r3, r3, #1048576
	str	r3, [fp, #-16]
	mov	r3, #0
	str	r3, [fp, #-8]
	b	.L51
.L54:
	sub	r3, fp, #32768
	sub	r3, r3, #4
	sub	r3, r3, #12
	ldr	r1, [fp, #-16]
	ldr	r2, [fp, #-8]
	mov	r2, r2, asl #1
	add	r1, r1, r2
	mov	r2, r3
	mov	r3, r1
	mov	ip, #32768
	mov	r0, r2
	mov	r1, r3
	mov	r3, ip
	mov	r2, r3
	bl	memcpy
	mov	r3, #0
	str	r3, [fp, #-12]
	b	.L52
.L53:
	ldr	r2, [fp, #-8]
	ldr	r3, [fp, #-12]
	add	r3, r2, r3
	mov	r3, r3, asl #1
	ldr	r2, [fp, #-16]
	add	r2, r2, r3
	ldr	r1, [fp, #-12]
	ldr	r3, .L55+12
	and	r3, r1, r3
	ldr	r1, [fp, #-12]
	mov	r1, r1, lsr #9
	and	r1, r1, #1
	mov	r1, r1, asl #13
	orr	r1, r3, r1
	ldr	r3, [fp, #-12]
	mov	r3, r3, lsr #4
	and	r3, r3, #1
	mov	r3, r3, asl #12
	orr	r1, r1, r3
	ldr	r3, [fp, #-12]
	mov	r3, r3, lsr #8
	and	r3, r3, #1
	mov	r3, r3, asl #11
	orr	r1, r1, r3
	ldr	r3, [fp, #-12]
	mov	r3, r3, lsr #3
	and	r3, r3, #1
	mov	r3, r3, asl #10
	orr	r1, r1, r3
	ldr	r3, [fp, #-12]
	mov	r3, r3, lsr #13
	and	r3, r3, #1
	mov	r3, r3, asl #9
	orr	r1, r1, r3
	ldr	r3, [fp, #-12]
	mov	r3, r3, lsr #6
	and	r3, r3, #1
	mov	r3, r3, asl #8
	orr	r1, r1, r3
	ldr	r3, [fp, #-12]
	mov	r3, r3, lsr #2
	mov	r3, r3, asl #7
	and	r3, r3, #255
	orr	r1, r1, r3
	ldr	r3, [fp, #-12]
	mov	r3, r3, lsr #7
	and	r3, r3, #1
	mov	r3, r3, asl #6
	orr	r1, r1, r3
	ldr	r3, [fp, #-12]
	and	r3, r3, #1
	mov	r3, r3, asl #5
	orr	r1, r1, r3
	ldr	r3, [fp, #-12]
	mov	r3, r3, lsr #12
	and	r3, r3, #1
	mov	r3, r3, asl #4
	orr	r1, r1, r3
	ldr	r3, [fp, #-12]
	mov	r3, r3, lsr #1
	and	r3, r3, #1
	mov	r3, r3, asl #3
	orr	r1, r1, r3
	ldr	r3, [fp, #-12]
	mov	r3, r3, lsr #11
	and	r3, r3, #1
	mov	r3, r3, asl #2
	orr	r1, r1, r3
	ldr	r3, [fp, #-12]
	mov	r3, r3, lsr #10
	and	r3, r3, #1
	mov	r3, r3, asl #1
	orr	r1, r1, r3
	ldr	r3, [fp, #-12]
	mov	r3, r3, lsr #5
	and	r3, r3, #1
	orr	r3, r1, r3
	ldr	r0, .L55+16
	mov	r3, r3, asl #1
	sub	ip, fp, #4
	add	r1, ip, r3
	mov	r3, r0
	add	r3, r1, r3
	ldrh	r3, [r3, #0]
	strh	r3, [r2, #0]	@ movhi
	ldr	r3, [fp, #-12]
	add	r3, r3, #1
	str	r3, [fp, #-12]
.L52:
	ldr	r2, [fp, #-12]
	ldr	r3, .L55+20
	cmp	r2, r3
	bls	.L53
	ldr	r3, [fp, #-8]
	add	r3, r3, #16384
	str	r3, [fp, #-8]
.L51:
	ldr	r2, [fp, #-8]
	ldr	r3, .L55+4
	cmp	r2, r3
	bls	.L54
	sub	sp, fp, #4
	ldmfd	sp!, {fp, pc}
.L56:
	.align	2
.L55:
	.word	memory_region_cpu1
	.word	4194303
	.word	393215
	.word	16760832
	.word	-32780
	.word	16383
	.fnend
	.size	garou_decrypt_68k, .-garou_decrypt_68k
	.align	2
	.global	garouh_decrypt_68k
	.type	garouh_decrypt_68k, %function
garouh_decrypt_68k:
	.fnstart
	@ args = 0, pretend = 0, frame = 32784
	@ frame_needed = 1, uses_anonymous_args = 0
	stmfd	sp!, {fp, lr}
	.save {fp, lr}
	.setfp fp, sp, #4
	add	fp, sp, #4
	.pad #32768
	sub	sp, sp, #32768
	.pad #16
	sub	sp, sp, #16
	ldr	r3, .L66
	ldr	r3, [r3, #0]
	add	r3, r3, #1048576
	str	r3, [fp, #-16]
	mov	r3, #0
	str	r3, [fp, #-8]
	b	.L58
.L59:
	ldr	r3, [fp, #-8]
	mov	r3, r3, asl #1
	ldr	r2, [fp, #-16]
	add	r3, r2, r3
	ldr	r2, [fp, #-8]
	mov	r2, r2, asl #1
	ldr	r1, [fp, #-16]
	add	r2, r1, r2
	ldrh	r2, [r2, #0]
	mov	r2, r2, lsr #14
	mov	r2, r2, asl #16
	mov	r2, r2, lsr #16
	mov	r2, r2, asl #15
	mov	r2, r2, asl #16
	mov	r1, r2, lsr #16
	ldr	r2, [fp, #-8]
	mov	r2, r2, asl #1
	ldr	r0, [fp, #-16]
	add	r2, r0, r2
	ldrh	r2, [r2, #0]
	mov	r2, r2, lsr #5
	mov	r2, r2, asl #16
	mov	r2, r2, lsr #16
	and	r2, r2, #1
	mov	r2, r2, asl #14
	mov	r2, r2, asl #16
	mov	r2, r2, lsr #16
	orr	r2, r1, r2
	mov	r2, r2, asl #16
	mov	r1, r2, lsr #16
	ldr	r2, [fp, #-8]
	mov	r2, r2, asl #1
	ldr	r0, [fp, #-16]
	add	r2, r0, r2
	ldrh	r2, [r2, #0]
	mov	r2, r2, lsr #1
	mov	r2, r2, asl #16
	mov	r2, r2, lsr #16
	and	r2, r2, #1
	mov	r2, r2, asl #13
	mov	r2, r2, asl #16
	mov	r2, r2, lsr #16
	orr	r2, r1, r2
	mov	r2, r2, asl #16
	mov	r1, r2, lsr #16
	ldr	r2, [fp, #-8]
	mov	r2, r2, asl #1
	ldr	r0, [fp, #-16]
	add	r2, r0, r2
	ldrh	r2, [r2, #0]
	mov	r2, r2, lsr #11
	mov	r2, r2, asl #16
	mov	r2, r2, lsr #16
	and	r2, r2, #1
	mov	r2, r2, asl #12
	mov	r2, r2, asl #16
	mov	r2, r2, lsr #16
	orr	r2, r1, r2
	mov	r2, r2, asl #16
	mov	r1, r2, lsr #16
	ldr	r2, [fp, #-8]
	mov	r2, r2, asl #1
	ldr	r0, [fp, #-16]
	add	r2, r0, r2
	ldrh	r2, [r2, #0]
	mov	r2, r2, lsr #7
	mov	r2, r2, asl #16
	mov	r2, r2, lsr #16
	and	r2, r2, #1
	mov	r2, r2, asl #11
	mov	r2, r2, asl #16
	mov	r2, r2, lsr #16
	orr	r2, r1, r2
	mov	r2, r2, asl #16
	mov	r1, r2, lsr #16
	ldr	r2, [fp, #-8]
	mov	r2, r2, asl #1
	ldr	r0, [fp, #-16]
	add	r2, r0, r2
	ldrh	r2, [r2, #0]
	mov	r2, r2, lsr #4
	mov	r2, r2, asl #16
	mov	r2, r2, lsr #16
	and	r2, r2, #1
	mov	r2, r2, asl #10
	mov	r2, r2, asl #16
	mov	r2, r2, lsr #16
	orr	r2, r1, r2
	mov	r2, r2, asl #16
	mov	r1, r2, lsr #16
	ldr	r2, [fp, #-8]
	mov	r2, r2, asl #1
	ldr	r0, [fp, #-16]
	add	r2, r0, r2
	ldrh	r2, [r2, #0]
	mov	r2, r2, lsr #10
	mov	r2, r2, asl #16
	mov	r2, r2, lsr #16
	and	r2, r2, #1
	mov	r2, r2, asl #9
	mov	r2, r2, asl #16
	mov	r2, r2, lsr #16
	orr	r2, r1, r2
	mov	r2, r2, asl #16
	mov	r1, r2, lsr #16
	ldr	r2, [fp, #-8]
	mov	r2, r2, asl #1
	ldr	r0, [fp, #-16]
	add	r2, r0, r2
	ldrh	r2, [r2, #0]
	mov	r2, r2, lsr #15
	mov	r2, r2, asl #16
	mov	r2, r2, lsr #16
	and	r2, r2, #1
	mov	r2, r2, asl #8
	mov	r2, r2, asl #16
	mov	r2, r2, lsr #16
	orr	r2, r1, r2
	mov	r2, r2, asl #16
	mov	r1, r2, lsr #16
	ldr	r2, [fp, #-8]
	mov	r2, r2, asl #1
	ldr	r0, [fp, #-16]
	add	r2, r0, r2
	ldrh	r2, [r2, #0]
	mov	r2, r2, lsr #3
	mov	r2, r2, asl #16
	mov	r2, r2, lsr #16
	mov	r2, r2, asl #7
	mov	r2, r2, asl #16
	mov	r2, r2, lsr #16
	and	r2, r2, #255
	mov	r2, r2, asl #16
	mov	r2, r2, lsr #16
	orr	r2, r1, r2
	mov	r2, r2, asl #16
	mov	r1, r2, lsr #16
	ldr	r2, [fp, #-8]
	mov	r2, r2, asl #1
	ldr	r0, [fp, #-16]
	add	r2, r0, r2
	ldrh	r2, [r2, #0]
	mov	r2, r2, lsr #12
	mov	r2, r2, asl #16
	mov	r2, r2, lsr #16
	and	r2, r2, #1
	mov	r2, r2, asl #6
	mov	r2, r2, asl #16
	mov	r2, r2, lsr #16
	orr	r2, r1, r2
	mov	r2, r2, asl #16
	mov	r1, r2, lsr #16
	ldr	r2, [fp, #-8]
	mov	r2, r2, asl #1
	ldr	r0, [fp, #-16]
	add	r2, r0, r2
	ldrh	r2, [r2, #0]
	mov	r2, r2, lsr #8
	mov	r2, r2, asl #16
	mov	r2, r2, lsr #16
	and	r2, r2, #1
	mov	r2, r2, asl #5
	mov	r2, r2, asl #16
	mov	r2, r2, lsr #16
	orr	r2, r1, r2
	mov	r2, r2, asl #16
	mov	r1, r2, lsr #16
	ldr	r2, [fp, #-8]
	mov	r2, r2, asl #1
	ldr	r0, [fp, #-16]
	add	r2, r0, r2
	ldrh	r2, [r2, #0]
	mov	r2, r2, lsr #13
	mov	r2, r2, asl #16
	mov	r2, r2, lsr #16
	and	r2, r2, #1
	mov	r2, r2, asl #4
	mov	r2, r2, asl #16
	mov	r2, r2, lsr #16
	orr	r2, r1, r2
	mov	r2, r2, asl #16
	mov	r1, r2, lsr #16
	ldr	r2, [fp, #-8]
	mov	r2, r2, asl #1
	ldr	r0, [fp, #-16]
	add	r2, r0, r2
	ldrh	r2, [r2, #0]
	and	r2, r2, #1
	mov	r2, r2, asl #3
	mov	r2, r2, asl #16
	mov	r2, r2, lsr #16
	orr	r2, r1, r2
	mov	r2, r2, asl #16
	mov	r1, r2, lsr #16
	ldr	r2, [fp, #-8]
	mov	r2, r2, asl #1
	ldr	r0, [fp, #-16]
	add	r2, r0, r2
	ldrh	r2, [r2, #0]
	mov	r2, r2, lsr #2
	mov	r2, r2, asl #16
	mov	r2, r2, lsr #16
	and	r2, r2, #1
	mov	r2, r2, asl #2
	mov	r2, r2, asl #16
	mov	r2, r2, lsr #16
	orr	r2, r1, r2
	mov	r2, r2, asl #16
	mov	r1, r2, lsr #16
	ldr	r2, [fp, #-8]
	mov	r2, r2, asl #1
	ldr	r0, [fp, #-16]
	add	r2, r0, r2
	ldrh	r2, [r2, #0]
	mov	r2, r2, lsr #9
	mov	r2, r2, asl #16
	mov	r2, r2, lsr #16
	and	r2, r2, #1
	mov	r2, r2, asl #1
	mov	r2, r2, asl #16
	mov	r2, r2, lsr #16
	orr	r2, r1, r2
	mov	r2, r2, asl #16
	mov	r1, r2, lsr #16
	ldr	r2, [fp, #-8]
	mov	r2, r2, asl #1
	ldr	r0, [fp, #-16]
	add	r2, r0, r2
	ldrh	r2, [r2, #0]
	mov	r2, r2, lsr #6
	mov	r2, r2, asl #16
	mov	r2, r2, lsr #16
	mov	r2, r2, asl #16
	mov	r2, r2, lsr #16
	and	r2, r2, #1
	mov	r2, r2, asl #16
	mov	r2, r2, lsr #16
	orr	r2, r1, r2
	mov	r2, r2, asl #16
	mov	r2, r2, lsr #16
	mov	r2, r2, asl #16
	mov	r2, r2, lsr #16
	strh	r2, [r3, #0]	@ movhi
	ldr	r3, [fp, #-8]
	add	r3, r3, #1
	str	r3, [fp, #-8]
.L58:
	ldr	r2, [fp, #-8]
	ldr	r3, .L66+4
	cmp	r2, r3
	bls	.L59
	ldr	r3, .L66
	ldr	r3, [r3, #0]
	str	r3, [fp, #-16]
	mov	r3, #0
	str	r3, [fp, #-8]
	b	.L60
.L61:
	ldr	r3, [fp, #-8]
	mov	r3, r3, asl #1
	ldr	r2, [fp, #-16]
	add	r2, r2, r3
	ldr	r3, [fp, #-8]
	and	r1, r3, #16515072
	ldr	r3, [fp, #-8]
	mov	r3, r3, lsr #5
	and	r3, r3, #1
	mov	r3, r3, asl #17
	orr	r1, r1, r3
	ldr	r3, [fp, #-8]
	and	r3, r3, #65536
	orr	r1, r1, r3
	ldr	r3, [fp, #-8]
	mov	r3, r3, lsr #11
	mov	r3, r3, asl #15
	mov	r3, r3, asl #16
	mov	r3, r3, lsr #16
	orr	r1, r1, r3
	ldr	r3, [fp, #-8]
	mov	r3, r3, lsr #2
	and	r3, r3, #1
	mov	r3, r3, asl #14
	orr	r1, r1, r3
	ldr	r3, [fp, #-8]
	mov	r3, r3, lsr #6
	and	r3, r3, #1
	mov	r3, r3, asl #13
	orr	r1, r1, r3
	ldr	r3, [fp, #-8]
	mov	r3, r3, lsr #7
	and	r3, r3, #1
	mov	r3, r3, asl #12
	orr	r1, r1, r3
	ldr	r3, [fp, #-8]
	mov	r3, r3, lsr #17
	and	r3, r3, #1
	mov	r3, r3, asl #11
	orr	r1, r1, r3
	ldr	r3, [fp, #-8]
	mov	r3, r3, lsr #3
	and	r3, r3, #1
	mov	r3, r3, asl #10
	orr	r1, r1, r3
	ldr	r3, [fp, #-8]
	mov	r3, r3, lsr #12
	and	r3, r3, #1
	mov	r3, r3, asl #9
	orr	r1, r1, r3
	ldr	r3, [fp, #-8]
	and	r3, r3, #256
	orr	r1, r1, r3
	ldr	r3, [fp, #-8]
	mov	r3, r3, lsr #14
	mov	r3, r3, asl #7
	and	r3, r3, #255
	orr	r1, r1, r3
	ldr	r3, [fp, #-8]
	mov	r3, r3, lsr #4
	and	r3, r3, #1
	mov	r3, r3, asl #6
	orr	r1, r1, r3
	ldr	r3, [fp, #-8]
	and	r3, r3, #1
	mov	r3, r3, asl #5
	orr	r1, r1, r3
	ldr	r3, [fp, #-8]
	mov	r3, r3, lsr #9
	and	r3, r3, #1
	mov	r3, r3, asl #4
	orr	r1, r1, r3
	ldr	r3, [fp, #-8]
	mov	r3, r3, lsr #1
	and	r3, r3, #1
	mov	r3, r3, asl #3
	orr	r1, r1, r3
	ldr	r3, [fp, #-8]
	mov	r3, r3, lsr #10
	and	r3, r3, #1
	mov	r3, r3, asl #2
	orr	r1, r1, r3
	ldr	r3, [fp, #-8]
	mov	r3, r3, lsr #15
	and	r3, r3, #1
	mov	r3, r3, asl #1
	orr	r1, r1, r3
	ldr	r3, [fp, #-8]
	mov	r3, r3, lsr #13
	and	r3, r3, #1
	orr	r3, r1, r3
	add	r3, r3, #4177920
	mov	r3, r3, asl #1
	ldr	r1, [fp, #-16]
	add	r3, r1, r3
	ldrh	r3, [r3, #0]
	strh	r3, [r2, #0]	@ movhi
	ldr	r3, [fp, #-8]
	add	r3, r3, #1
	str	r3, [fp, #-8]
.L60:
	ldr	r2, [fp, #-8]
	ldr	r3, .L66+8
	cmp	r2, r3
	bls	.L61
	ldr	r3, .L66
	ldr	r3, [r3, #0]
	add	r3, r3, #1048576
	str	r3, [fp, #-16]
	mov	r3, #0
	str	r3, [fp, #-8]
	b	.L62
.L65:
	sub	r3, fp, #32768
	sub	r3, r3, #4
	sub	r3, r3, #12
	ldr	r1, [fp, #-16]
	ldr	r2, [fp, #-8]
	mov	r2, r2, asl #1
	add	r1, r1, r2
	mov	r2, r3
	mov	r3, r1
	mov	ip, #32768
	mov	r0, r2
	mov	r1, r3
	mov	r3, ip
	mov	r2, r3
	bl	memcpy
	mov	r3, #0
	str	r3, [fp, #-12]
	b	.L63
.L64:
	ldr	r2, [fp, #-8]
	ldr	r3, [fp, #-12]
	add	r3, r2, r3
	mov	r3, r3, asl #1
	ldr	r2, [fp, #-16]
	add	r2, r2, r3
	ldr	r1, [fp, #-12]
	ldr	r3, .L66+12
	and	r3, r1, r3
	ldr	r1, [fp, #-12]
	mov	r1, r1, lsr #12
	and	r1, r1, #1
	mov	r1, r1, asl #13
	orr	r1, r3, r1
	ldr	r3, [fp, #-12]
	mov	r3, r3, lsr #8
	and	r3, r3, #1
	mov	r3, r3, asl #12
	orr	r1, r1, r3
	ldr	r3, [fp, #-12]
	mov	r3, r3, lsr #1
	and	r3, r3, #1
	mov	r3, r3, asl #11
	orr	r1, r1, r3
	ldr	r3, [fp, #-12]
	mov	r3, r3, lsr #7
	and	r3, r3, #1
	mov	r3, r3, asl #10
	orr	r1, r1, r3
	ldr	r3, [fp, #-12]
	mov	r3, r3, lsr #11
	and	r3, r3, #1
	mov	r3, r3, asl #9
	orr	r1, r1, r3
	ldr	r3, [fp, #-12]
	mov	r3, r3, lsr #3
	and	r3, r3, #1
	mov	r3, r3, asl #8
	orr	r1, r1, r3
	ldr	r3, [fp, #-12]
	mov	r3, r3, lsr #13
	mov	r3, r3, asl #7
	and	r3, r3, #255
	orr	r1, r1, r3
	ldr	r3, [fp, #-12]
	mov	r3, r3, lsr #10
	and	r3, r3, #1
	mov	r3, r3, asl #6
	orr	r1, r1, r3
	ldr	r3, [fp, #-12]
	mov	r3, r3, lsr #6
	and	r3, r3, #1
	mov	r3, r3, asl #5
	orr	r1, r1, r3
	ldr	r3, [fp, #-12]
	mov	r3, r3, lsr #9
	and	r3, r3, #1
	mov	r3, r3, asl #4
	orr	r1, r1, r3
	ldr	r3, [fp, #-12]
	mov	r3, r3, lsr #5
	and	r3, r3, #1
	mov	r3, r3, asl #3
	orr	r1, r1, r3
	ldr	r3, [fp, #-12]
	mov	r3, r3, lsr #4
	and	r3, r3, #1
	mov	r3, r3, asl #2
	orr	r1, r1, r3
	ldr	r3, [fp, #-12]
	and	r3, r3, #1
	mov	r3, r3, asl #1
	orr	r1, r1, r3
	ldr	r3, [fp, #-12]
	mov	r3, r3, lsr #2
	and	r3, r3, #1
	orr	r3, r1, r3
	ldr	r0, .L66+16
	mov	r3, r3, asl #1
	sub	ip, fp, #4
	add	r1, ip, r3
	mov	r3, r0
	add	r3, r1, r3
	ldrh	r3, [r3, #0]
	strh	r3, [r2, #0]	@ movhi
	ldr	r3, [fp, #-12]
	add	r3, r3, #1
	str	r3, [fp, #-12]
.L63:
	ldr	r2, [fp, #-12]
	ldr	r3, .L66+20
	cmp	r2, r3
	bls	.L64
	ldr	r3, [fp, #-8]
	add	r3, r3, #16384
	str	r3, [fp, #-8]
.L62:
	ldr	r2, [fp, #-8]
	ldr	r3, .L66+4
	cmp	r2, r3
	bls	.L65
	sub	sp, fp, #4
	ldmfd	sp!, {fp, pc}
.L67:
	.align	2
.L66:
	.word	memory_region_cpu1
	.word	4194303
	.word	393215
	.word	16760832
	.word	-32780
	.word	16383
	.fnend
	.size	garouh_decrypt_68k, .-garouh_decrypt_68k
	.align	2
	.global	mslug3_decrypt_68k
	.type	mslug3_decrypt_68k, %function
mslug3_decrypt_68k:
	.fnstart
	@ args = 0, pretend = 0, frame = 65552
	@ frame_needed = 1, uses_anonymous_args = 0
	stmfd	sp!, {fp, lr}
	.save {fp, lr}
	.setfp fp, sp, #4
	add	fp, sp, #4
	.pad #65536
	sub	sp, sp, #65536
	.pad #16
	sub	sp, sp, #16
	ldr	r3, .L77
	ldr	r3, [r3, #0]
	add	r3, r3, #1048576
	str	r3, [fp, #-16]
	mov	r3, #0
	str	r3, [fp, #-8]
	b	.L69
.L70:
	ldr	r3, [fp, #-8]
	mov	r3, r3, asl #1
	ldr	r2, [fp, #-16]
	add	r3, r2, r3
	ldr	r2, [fp, #-8]
	mov	r2, r2, asl #1
	ldr	r1, [fp, #-16]
	add	r2, r1, r2
	ldrh	r2, [r2, #0]
	mov	r2, r2, lsr #4
	mov	r2, r2, asl #16
	mov	r2, r2, lsr #16
	mov	r2, r2, asl #15
	mov	r2, r2, asl #16
	mov	r1, r2, lsr #16
	ldr	r2, [fp, #-8]
	mov	r2, r2, asl #1
	ldr	r0, [fp, #-16]
	add	r2, r0, r2
	ldrh	r2, [r2, #0]
	mov	r2, r2, lsr #11
	mov	r2, r2, asl #16
	mov	r2, r2, lsr #16
	and	r2, r2, #1
	mov	r2, r2, asl #14
	mov	r2, r2, asl #16
	mov	r2, r2, lsr #16
	orr	r2, r1, r2
	mov	r2, r2, asl #16
	mov	r1, r2, lsr #16
	ldr	r2, [fp, #-8]
	mov	r2, r2, asl #1
	ldr	r0, [fp, #-16]
	add	r2, r0, r2
	ldrh	r2, [r2, #0]
	mov	r2, r2, lsr #14
	mov	r2, r2, asl #16
	mov	r2, r2, lsr #16
	and	r2, r2, #1
	mov	r2, r2, asl #13
	mov	r2, r2, asl #16
	mov	r2, r2, lsr #16
	orr	r2, r1, r2
	mov	r2, r2, asl #16
	mov	r1, r2, lsr #16
	ldr	r2, [fp, #-8]
	mov	r2, r2, asl #1
	ldr	r0, [fp, #-16]
	add	r2, r0, r2
	ldrh	r2, [r2, #0]
	mov	r2, r2, lsr #3
	mov	r2, r2, asl #16
	mov	r2, r2, lsr #16
	and	r2, r2, #1
	mov	r2, r2, asl #12
	mov	r2, r2, asl #16
	mov	r2, r2, lsr #16
	orr	r2, r1, r2
	mov	r2, r2, asl #16
	mov	r1, r2, lsr #16
	ldr	r2, [fp, #-8]
	mov	r2, r2, asl #1
	ldr	r0, [fp, #-16]
	add	r2, r0, r2
	ldrh	r2, [r2, #0]
	mov	r2, r2, lsr #1
	mov	r2, r2, asl #16
	mov	r2, r2, lsr #16
	and	r2, r2, #1
	mov	r2, r2, asl #11
	mov	r2, r2, asl #16
	mov	r2, r2, lsr #16
	orr	r2, r1, r2
	mov	r2, r2, asl #16
	mov	r1, r2, lsr #16
	ldr	r2, [fp, #-8]
	mov	r2, r2, asl #1
	ldr	r0, [fp, #-16]
	add	r2, r0, r2
	ldrh	r2, [r2, #0]
	mov	r2, r2, lsr #13
	mov	r2, r2, asl #16
	mov	r2, r2, lsr #16
	and	r2, r2, #1
	mov	r2, r2, asl #10
	mov	r2, r2, asl #16
	mov	r2, r2, lsr #16
	orr	r2, r1, r2
	mov	r2, r2, asl #16
	mov	r1, r2, lsr #16
	ldr	r2, [fp, #-8]
	mov	r2, r2, asl #1
	ldr	r0, [fp, #-16]
	add	r2, r0, r2
	ldrh	r2, [r2, #0]
	and	r2, r2, #1
	mov	r2, r2, asl #9
	mov	r2, r2, asl #16
	mov	r2, r2, lsr #16
	orr	r2, r1, r2
	mov	r2, r2, asl #16
	mov	r1, r2, lsr #16
	ldr	r2, [fp, #-8]
	mov	r2, r2, asl #1
	ldr	r0, [fp, #-16]
	add	r2, r0, r2
	ldrh	r2, [r2, #0]
	mov	r2, r2, lsr #7
	mov	r2, r2, asl #16
	mov	r2, r2, lsr #16
	and	r2, r2, #1
	mov	r2, r2, asl #8
	mov	r2, r2, asl #16
	mov	r2, r2, lsr #16
	orr	r2, r1, r2
	mov	r2, r2, asl #16
	mov	r1, r2, lsr #16
	ldr	r2, [fp, #-8]
	mov	r2, r2, asl #1
	ldr	r0, [fp, #-16]
	add	r2, r0, r2
	ldrh	r2, [r2, #0]
	mov	r2, r2, lsr #2
	mov	r2, r2, asl #16
	mov	r2, r2, lsr #16
	mov	r2, r2, asl #7
	mov	r2, r2, asl #16
	mov	r2, r2, lsr #16
	and	r2, r2, #255
	mov	r2, r2, asl #16
	mov	r2, r2, lsr #16
	orr	r2, r1, r2
	mov	r2, r2, asl #16
	mov	r1, r2, lsr #16
	ldr	r2, [fp, #-8]
	mov	r2, r2, asl #1
	ldr	r0, [fp, #-16]
	add	r2, r0, r2
	ldrh	r2, [r2, #0]
	mov	r2, r2, lsr #8
	mov	r2, r2, asl #16
	mov	r2, r2, lsr #16
	and	r2, r2, #1
	mov	r2, r2, asl #6
	mov	r2, r2, asl #16
	mov	r2, r2, lsr #16
	orr	r2, r1, r2
	mov	r2, r2, asl #16
	mov	r1, r2, lsr #16
	ldr	r2, [fp, #-8]
	mov	r2, r2, asl #1
	ldr	r0, [fp, #-16]
	add	r2, r0, r2
	ldrh	r2, [r2, #0]
	mov	r2, r2, lsr #12
	mov	r2, r2, asl #16
	mov	r2, r2, lsr #16
	and	r2, r2, #1
	mov	r2, r2, asl #5
	mov	r2, r2, asl #16
	mov	r2, r2, lsr #16
	orr	r2, r1, r2
	mov	r2, r2, asl #16
	mov	r1, r2, lsr #16
	ldr	r2, [fp, #-8]
	mov	r2, r2, asl #1
	ldr	r0, [fp, #-16]
	add	r2, r0, r2
	ldrh	r2, [r2, #0]
	mov	r2, r2, lsr #15
	mov	r2, r2, asl #16
	mov	r2, r2, lsr #16
	and	r2, r2, #1
	mov	r2, r2, asl #4
	mov	r2, r2, asl #16
	mov	r2, r2, lsr #16
	orr	r2, r1, r2
	mov	r2, r2, asl #16
	mov	r1, r2, lsr #16
	ldr	r2, [fp, #-8]
	mov	r2, r2, asl #1
	ldr	r0, [fp, #-16]
	add	r2, r0, r2
	ldrh	r2, [r2, #0]
	mov	r2, r2, lsr #10
	mov	r2, r2, asl #16
	mov	r2, r2, lsr #16
	and	r2, r2, #1
	mov	r2, r2, asl #3
	mov	r2, r2, asl #16
	mov	r2, r2, lsr #16
	orr	r2, r1, r2
	mov	r2, r2, asl #16
	mov	r1, r2, lsr #16
	ldr	r2, [fp, #-8]
	mov	r2, r2, asl #1
	ldr	r0, [fp, #-16]
	add	r2, r0, r2
	ldrh	r2, [r2, #0]
	mov	r2, r2, lsr #9
	mov	r2, r2, asl #16
	mov	r2, r2, lsr #16
	and	r2, r2, #1
	mov	r2, r2, asl #2
	mov	r2, r2, asl #16
	mov	r2, r2, lsr #16
	orr	r2, r1, r2
	mov	r2, r2, asl #16
	mov	r1, r2, lsr #16
	ldr	r2, [fp, #-8]
	mov	r2, r2, asl #1
	ldr	r0, [fp, #-16]
	add	r2, r0, r2
	ldrh	r2, [r2, #0]
	mov	r2, r2, lsr #5
	mov	r2, r2, asl #16
	mov	r2, r2, lsr #16
	and	r2, r2, #1
	mov	r2, r2, asl #1
	mov	r2, r2, asl #16
	mov	r2, r2, lsr #16
	orr	r2, r1, r2
	mov	r2, r2, asl #16
	mov	r1, r2, lsr #16
	ldr	r2, [fp, #-8]
	mov	r2, r2, asl #1
	ldr	r0, [fp, #-16]
	add	r2, r0, r2
	ldrh	r2, [r2, #0]
	mov	r2, r2, lsr #6
	mov	r2, r2, asl #16
	mov	r2, r2, lsr #16
	mov	r2, r2, asl #16
	mov	r2, r2, lsr #16
	and	r2, r2, #1
	mov	r2, r2, asl #16
	mov	r2, r2, lsr #16
	orr	r2, r1, r2
	mov	r2, r2, asl #16
	mov	r2, r2, lsr #16
	mov	r2, r2, asl #16
	mov	r2, r2, lsr #16
	strh	r2, [r3, #0]	@ movhi
	ldr	r3, [fp, #-8]
	add	r3, r3, #1
	str	r3, [fp, #-8]
.L69:
	ldr	r2, [fp, #-8]
	ldr	r3, .L77+4
	cmp	r2, r3
	bls	.L70
	ldr	r3, .L77
	ldr	r3, [r3, #0]
	str	r3, [fp, #-16]
	mov	r3, #0
	str	r3, [fp, #-8]
	b	.L71
.L72:
	ldr	r3, [fp, #-8]
	mov	r3, r3, asl #1
	ldr	r2, [fp, #-16]
	add	r2, r2, r3
	ldr	r3, [fp, #-8]
	and	r1, r3, #16515072
	ldr	r3, [fp, #-8]
	mov	r3, r3, lsr #15
	and	r3, r3, #1
	mov	r3, r3, asl #17
	orr	r1, r1, r3
	ldr	r3, [fp, #-8]
	mov	r3, r3, lsr #2
	and	r3, r3, #1
	mov	r3, r3, asl #16
	orr	r1, r1, r3
	ldr	r3, [fp, #-8]
	mov	r3, r3, lsr #1
	mov	r3, r3, asl #15
	mov	r3, r3, asl #16
	mov	r3, r3, lsr #16
	orr	r1, r1, r3
	ldr	r3, [fp, #-8]
	mov	r3, r3, lsr #13
	and	r3, r3, #1
	mov	r3, r3, asl #14
	orr	r1, r1, r3
	ldr	r3, [fp, #-8]
	mov	r3, r3, lsr #3
	and	r3, r3, #1
	mov	r3, r3, asl #13
	orr	r1, r1, r3
	ldr	r3, [fp, #-8]
	and	r3, r3, #1
	mov	r3, r3, asl #12
	orr	r1, r1, r3
	ldr	r3, [fp, #-8]
	mov	r3, r3, lsr #9
	and	r3, r3, #1
	mov	r3, r3, asl #11
	orr	r1, r1, r3
	ldr	r3, [fp, #-8]
	mov	r3, r3, lsr #6
	and	r3, r3, #1
	mov	r3, r3, asl #10
	orr	r1, r1, r3
	ldr	r3, [fp, #-8]
	mov	r3, r3, lsr #16
	and	r3, r3, #1
	mov	r3, r3, asl #9
	orr	r1, r1, r3
	ldr	r3, [fp, #-8]
	mov	r3, r3, lsr #4
	and	r3, r3, #1
	mov	r3, r3, asl #8
	orr	r1, r1, r3
	ldr	r3, [fp, #-8]
	mov	r3, r3, lsr #11
	mov	r3, r3, asl #7
	and	r3, r3, #255
	orr	r1, r1, r3
	ldr	r3, [fp, #-8]
	mov	r3, r3, lsr #5
	and	r3, r3, #1
	mov	r3, r3, asl #6
	orr	r1, r1, r3
	ldr	r3, [fp, #-8]
	mov	r3, r3, lsr #7
	and	r3, r3, #1
	mov	r3, r3, asl #5
	orr	r1, r1, r3
	ldr	r3, [fp, #-8]
	mov	r3, r3, lsr #12
	and	r3, r3, #1
	mov	r3, r3, asl #4
	orr	r1, r1, r3
	ldr	r3, [fp, #-8]
	mov	r3, r3, lsr #17
	and	r3, r3, #1
	mov	r3, r3, asl #3
	orr	r1, r1, r3
	ldr	r3, [fp, #-8]
	mov	r3, r3, lsr #14
	and	r3, r3, #1
	mov	r3, r3, asl #2
	orr	r1, r1, r3
	ldr	r3, [fp, #-8]
	mov	r3, r3, lsr #10
	and	r3, r3, #1
	mov	r3, r3, asl #1
	orr	r1, r1, r3
	ldr	r3, [fp, #-8]
	mov	r3, r3, lsr #8
	and	r3, r3, #1
	orr	r3, r1, r3
	add	r3, r3, #3047424
	mov	r3, r3, asl #1
	ldr	r1, [fp, #-16]
	add	r3, r1, r3
	ldrh	r3, [r3, #0]
	strh	r3, [r2, #0]	@ movhi
	ldr	r3, [fp, #-8]
	add	r3, r3, #1
	str	r3, [fp, #-8]
.L71:
	ldr	r2, [fp, #-8]
	ldr	r3, .L77+8
	cmp	r2, r3
	bls	.L72
	ldr	r3, .L77
	ldr	r3, [r3, #0]
	add	r3, r3, #1048576
	str	r3, [fp, #-16]
	mov	r3, #0
	str	r3, [fp, #-8]
	b	.L73
.L76:
	sub	r3, fp, #65536
	sub	r3, r3, #4
	sub	r3, r3, #12
	ldr	r1, [fp, #-16]
	ldr	r2, [fp, #-8]
	mov	r2, r2, asl #1
	add	r1, r1, r2
	mov	r2, r3
	mov	r3, r1
	mov	ip, #65536
	mov	r0, r2
	mov	r1, r3
	mov	r3, ip
	mov	r2, r3
	bl	memcpy
	mov	r3, #0
	str	r3, [fp, #-12]
	b	.L74
.L75:
	ldr	r2, [fp, #-8]
	ldr	r3, [fp, #-12]
	add	r3, r2, r3
	mov	r3, r3, asl #1
	ldr	r2, [fp, #-16]
	add	r2, r2, r3
	ldr	r1, [fp, #-12]
	ldr	r3, .L77+12
	and	r3, r1, r3
	ldr	r1, [fp, #-12]
	mov	r1, r1, lsr #2
	and	r1, r1, #1
	mov	r1, r1, asl #14
	orr	r1, r3, r1
	ldr	r3, [fp, #-12]
	mov	r3, r3, lsr #11
	and	r3, r3, #1
	mov	r3, r3, asl #13
	orr	r1, r1, r3
	ldr	r3, [fp, #-12]
	and	r3, r3, #1
	mov	r3, r3, asl #12
	orr	r1, r1, r3
	ldr	r3, [fp, #-12]
	mov	r3, r3, lsr #14
	and	r3, r3, #1
	mov	r3, r3, asl #11
	orr	r1, r1, r3
	ldr	r3, [fp, #-12]
	mov	r3, r3, lsr #6
	and	r3, r3, #1
	mov	r3, r3, asl #10
	orr	r1, r1, r3
	ldr	r3, [fp, #-12]
	mov	r3, r3, lsr #4
	and	r3, r3, #1
	mov	r3, r3, asl #9
	orr	r1, r1, r3
	ldr	r3, [fp, #-12]
	mov	r3, r3, lsr #13
	and	r3, r3, #1
	mov	r3, r3, asl #8
	orr	r1, r1, r3
	ldr	r3, [fp, #-12]
	mov	r3, r3, lsr #8
	mov	r3, r3, asl #7
	and	r3, r3, #255
	orr	r1, r1, r3
	ldr	r3, [fp, #-12]
	mov	r3, r3, lsr #9
	and	r3, r3, #1
	mov	r3, r3, asl #6
	orr	r1, r1, r3
	ldr	r3, [fp, #-12]
	mov	r3, r3, lsr #3
	and	r3, r3, #1
	mov	r3, r3, asl #5
	orr	r1, r1, r3
	ldr	r3, [fp, #-12]
	mov	r3, r3, lsr #10
	and	r3, r3, #1
	mov	r3, r3, asl #4
	orr	r1, r1, r3
	ldr	r3, [fp, #-12]
	mov	r3, r3, lsr #7
	and	r3, r3, #1
	mov	r3, r3, asl #3
	orr	r1, r1, r3
	ldr	r3, [fp, #-12]
	mov	r3, r3, lsr #5
	and	r3, r3, #1
	mov	r3, r3, asl #2
	orr	r1, r1, r3
	ldr	r3, [fp, #-12]
	mov	r3, r3, lsr #12
	and	r3, r3, #1
	mov	r3, r3, asl #1
	orr	r1, r1, r3
	ldr	r3, [fp, #-12]
	mov	r3, r3, lsr #1
	and	r3, r3, #1
	orr	r3, r1, r3
	ldr	r0, .L77+16
	mov	r3, r3, asl #1
	sub	ip, fp, #4
	add	r1, ip, r3
	mov	r3, r0
	add	r3, r1, r3
	ldrh	r3, [r3, #0]
	strh	r3, [r2, #0]	@ movhi
	ldr	r3, [fp, #-12]
	add	r3, r3, #1
	str	r3, [fp, #-12]
.L74:
	ldr	r2, [fp, #-12]
	ldr	r3, .L77+20
	cmp	r2, r3
	bls	.L75
	ldr	r3, [fp, #-8]
	add	r3, r3, #32768
	str	r3, [fp, #-8]
.L73:
	ldr	r2, [fp, #-8]
	ldr	r3, .L77+4
	cmp	r2, r3
	bls	.L76
	sub	sp, fp, #4
	ldmfd	sp!, {fp, pc}
.L78:
	.align	2
.L77:
	.word	memory_region_cpu1
	.word	4194303
	.word	393215
	.word	16744448
	.word	-65548
	.word	32767
	.fnend
	.size	mslug3_decrypt_68k, .-mslug3_decrypt_68k
	.align	2
	.global	kof2000_decrypt_68k
	.type	kof2000_decrypt_68k, %function
kof2000_decrypt_68k:
	.fnstart
	@ args = 0, pretend = 0, frame = 2064
	@ frame_needed = 1, uses_anonymous_args = 0
	stmfd	sp!, {fp, lr}
	.save {fp, lr}
	.setfp fp, sp, #4
	add	fp, sp, #4
	.pad #2064
	sub	sp, sp, #2064
	ldr	r3, .L88
	ldr	r3, [r3, #0]
	add	r3, r3, #1048576
	str	r3, [fp, #-16]
	mov	r3, #0
	str	r3, [fp, #-8]
	b	.L80
.L81:
	ldr	r3, [fp, #-8]
	mov	r3, r3, asl #1
	ldr	r2, [fp, #-16]
	add	r3, r2, r3
	ldr	r2, [fp, #-8]
	mov	r2, r2, asl #1
	ldr	r1, [fp, #-16]
	add	r2, r1, r2
	ldrh	r2, [r2, #0]
	mov	r2, r2, lsr #12
	mov	r2, r2, asl #16
	mov	r2, r2, lsr #16
	mov	r2, r2, asl #15
	mov	r2, r2, asl #16
	mov	r1, r2, lsr #16
	ldr	r2, [fp, #-8]
	mov	r2, r2, asl #1
	ldr	r0, [fp, #-16]
	add	r2, r0, r2
	ldrh	r2, [r2, #0]
	mov	r2, r2, lsr #8
	mov	r2, r2, asl #16
	mov	r2, r2, lsr #16
	and	r2, r2, #1
	mov	r2, r2, asl #14
	mov	r2, r2, asl #16
	mov	r2, r2, lsr #16
	orr	r2, r1, r2
	mov	r2, r2, asl #16
	mov	r1, r2, lsr #16
	ldr	r2, [fp, #-8]
	mov	r2, r2, asl #1
	ldr	r0, [fp, #-16]
	add	r2, r0, r2
	ldrh	r2, [r2, #0]
	mov	r2, r2, lsr #11
	mov	r2, r2, asl #16
	mov	r2, r2, lsr #16
	and	r2, r2, #1
	mov	r2, r2, asl #13
	mov	r2, r2, asl #16
	mov	r2, r2, lsr #16
	orr	r2, r1, r2
	mov	r2, r2, asl #16
	mov	r1, r2, lsr #16
	ldr	r2, [fp, #-8]
	mov	r2, r2, asl #1
	ldr	r0, [fp, #-16]
	add	r2, r0, r2
	ldrh	r2, [r2, #0]
	mov	r2, r2, lsr #3
	mov	r2, r2, asl #16
	mov	r2, r2, lsr #16
	and	r2, r2, #1
	mov	r2, r2, asl #12
	mov	r2, r2, asl #16
	mov	r2, r2, lsr #16
	orr	r2, r1, r2
	mov	r2, r2, asl #16
	mov	r1, r2, lsr #16
	ldr	r2, [fp, #-8]
	mov	r2, r2, asl #1
	ldr	r0, [fp, #-16]
	add	r2, r0, r2
	ldrh	r2, [r2, #0]
	mov	r2, r2, lsr #15
	mov	r2, r2, asl #16
	mov	r2, r2, lsr #16
	and	r2, r2, #1
	mov	r2, r2, asl #11
	mov	r2, r2, asl #16
	mov	r2, r2, lsr #16
	orr	r2, r1, r2
	mov	r2, r2, asl #16
	mov	r1, r2, lsr #16
	ldr	r2, [fp, #-8]
	mov	r2, r2, asl #1
	ldr	r0, [fp, #-16]
	add	r2, r0, r2
	ldrh	r2, [r2, #0]
	mov	r2, r2, lsr #14
	mov	r2, r2, asl #16
	mov	r2, r2, lsr #16
	and	r2, r2, #1
	mov	r2, r2, asl #10
	mov	r2, r2, asl #16
	mov	r2, r2, lsr #16
	orr	r2, r1, r2
	mov	r2, r2, asl #16
	mov	r1, r2, lsr #16
	ldr	r2, [fp, #-8]
	mov	r2, r2, asl #1
	ldr	r0, [fp, #-16]
	add	r2, r0, r2
	ldrh	r2, [r2, #0]
	mov	r2, r2, lsr #7
	mov	r2, r2, asl #16
	mov	r2, r2, lsr #16
	and	r2, r2, #1
	mov	r2, r2, asl #9
	mov	r2, r2, asl #16
	mov	r2, r2, lsr #16
	orr	r2, r1, r2
	mov	r2, r2, asl #16
	mov	r1, r2, lsr #16
	ldr	r2, [fp, #-8]
	mov	r2, r2, asl #1
	ldr	r0, [fp, #-16]
	add	r2, r0, r2
	ldrh	r2, [r2, #0]
	and	r2, r2, #1
	mov	r2, r2, asl #8
	mov	r2, r2, asl #16
	mov	r2, r2, lsr #16
	orr	r2, r1, r2
	mov	r2, r2, asl #16
	mov	r1, r2, lsr #16
	ldr	r2, [fp, #-8]
	mov	r2, r2, asl #1
	ldr	r0, [fp, #-16]
	add	r2, r0, r2
	ldrh	r2, [r2, #0]
	mov	r2, r2, lsr #10
	mov	r2, r2, asl #16
	mov	r2, r2, lsr #16
	mov	r2, r2, asl #7
	mov	r2, r2, asl #16
	mov	r2, r2, lsr #16
	and	r2, r2, #255
	mov	r2, r2, asl #16
	mov	r2, r2, lsr #16
	orr	r2, r1, r2
	mov	r2, r2, asl #16
	mov	r1, r2, lsr #16
	ldr	r2, [fp, #-8]
	mov	r2, r2, asl #1
	ldr	r0, [fp, #-16]
	add	r2, r0, r2
	ldrh	r2, [r2, #0]
	mov	r2, r2, lsr #13
	mov	r2, r2, asl #16
	mov	r2, r2, lsr #16
	and	r2, r2, #1
	mov	r2, r2, asl #6
	mov	r2, r2, asl #16
	mov	r2, r2, lsr #16
	orr	r2, r1, r2
	mov	r2, r2, asl #16
	mov	r1, r2, lsr #16
	ldr	r2, [fp, #-8]
	mov	r2, r2, asl #1
	ldr	r0, [fp, #-16]
	add	r2, r0, r2
	ldrh	r2, [r2, #0]
	mov	r2, r2, lsr #6
	mov	r2, r2, asl #16
	mov	r2, r2, lsr #16
	and	r2, r2, #1
	mov	r2, r2, asl #5
	mov	r2, r2, asl #16
	mov	r2, r2, lsr #16
	orr	r2, r1, r2
	mov	r2, r2, asl #16
	mov	r1, r2, lsr #16
	ldr	r2, [fp, #-8]
	mov	r2, r2, asl #1
	ldr	r0, [fp, #-16]
	add	r2, r0, r2
	ldrh	r2, [r2, #0]
	mov	r2, r2, lsr #5
	mov	r2, r2, asl #16
	mov	r2, r2, lsr #16
	and	r2, r2, #1
	mov	r2, r2, asl #4
	mov	r2, r2, asl #16
	mov	r2, r2, lsr #16
	orr	r2, r1, r2
	mov	r2, r2, asl #16
	mov	r1, r2, lsr #16
	ldr	r2, [fp, #-8]
	mov	r2, r2, asl #1
	ldr	r0, [fp, #-16]
	add	r2, r0, r2
	ldrh	r2, [r2, #0]
	mov	r2, r2, lsr #9
	mov	r2, r2, asl #16
	mov	r2, r2, lsr #16
	and	r2, r2, #1
	mov	r2, r2, asl #3
	mov	r2, r2, asl #16
	mov	r2, r2, lsr #16
	orr	r2, r1, r2
	mov	r2, r2, asl #16
	mov	r1, r2, lsr #16
	ldr	r2, [fp, #-8]
	mov	r2, r2, asl #1
	ldr	r0, [fp, #-16]
	add	r2, r0, r2
	ldrh	r2, [r2, #0]
	mov	r2, r2, lsr #2
	mov	r2, r2, asl #16
	mov	r2, r2, lsr #16
	and	r2, r2, #1
	mov	r2, r2, asl #2
	mov	r2, r2, asl #16
	mov	r2, r2, lsr #16
	orr	r2, r1, r2
	mov	r2, r2, asl #16
	mov	r1, r2, lsr #16
	ldr	r2, [fp, #-8]
	mov	r2, r2, asl #1
	ldr	r0, [fp, #-16]
	add	r2, r0, r2
	ldrh	r2, [r2, #0]
	mov	r2, r2, lsr #1
	mov	r2, r2, asl #16
	mov	r2, r2, lsr #16
	and	r2, r2, #1
	mov	r2, r2, asl #1
	mov	r2, r2, asl #16
	mov	r2, r2, lsr #16
	orr	r2, r1, r2
	mov	r2, r2, asl #16
	mov	r1, r2, lsr #16
	ldr	r2, [fp, #-8]
	mov	r2, r2, asl #1
	ldr	r0, [fp, #-16]
	add	r2, r0, r2
	ldrh	r2, [r2, #0]
	mov	r2, r2, lsr #4
	mov	r2, r2, asl #16
	mov	r2, r2, lsr #16
	mov	r2, r2, asl #16
	mov	r2, r2, lsr #16
	and	r2, r2, #1
	mov	r2, r2, asl #16
	mov	r2, r2, lsr #16
	orr	r2, r1, r2
	mov	r2, r2, asl #16
	mov	r2, r2, lsr #16
	mov	r2, r2, asl #16
	mov	r2, r2, lsr #16
	strh	r2, [r3, #0]	@ movhi
	ldr	r3, [fp, #-8]
	add	r3, r3, #1
	str	r3, [fp, #-8]
.L80:
	ldr	r2, [fp, #-8]
	ldr	r3, .L88+4
	cmp	r2, r3
	bls	.L81
	mov	r3, #0
	str	r3, [fp, #-8]
	b	.L82
.L85:
	sub	r3, fp, #2048
	sub	r3, r3, #4
	sub	r3, r3, #12
	ldr	r1, [fp, #-16]
	ldr	r2, [fp, #-8]
	mov	r2, r2, asl #1
	add	r1, r1, r2
	mov	r2, r3
	mov	r3, r1
	mov	ip, #2048
	mov	r0, r2
	mov	r1, r3
	mov	r3, ip
	mov	r2, r3
	bl	memcpy
	mov	r3, #0
	str	r3, [fp, #-12]
	b	.L83
.L84:
	ldr	r2, [fp, #-8]
	ldr	r3, [fp, #-12]
	add	r3, r2, r3
	mov	r3, r3, asl #1
	ldr	r2, [fp, #-16]
	add	r2, r2, r3
	ldr	r1, [fp, #-12]
	ldr	r3, .L88+8
	and	r3, r1, r3
	ldr	r1, [fp, #-12]
	mov	r1, r1, lsr #4
	and	r1, r1, #1
	mov	r1, r1, asl #9
	orr	r1, r3, r1
	ldr	r3, [fp, #-12]
	mov	r3, r3, lsr #1
	and	r3, r3, #1
	mov	r3, r3, asl #8
	orr	r1, r1, r3
	ldr	r3, [fp, #-12]
	mov	r3, r3, lsr #3
	mov	r3, r3, asl #7
	and	r3, r3, #255
	orr	r1, r1, r3
	ldr	r3, [fp, #-12]
	mov	r3, r3, lsr #8
	and	r3, r3, #1
	mov	r3, r3, asl #6
	orr	r1, r1, r3
	ldr	r3, [fp, #-12]
	mov	r3, r3, lsr #6
	and	r3, r3, #1
	mov	r3, r3, asl #5
	orr	r1, r1, r3
	ldr	r3, [fp, #-12]
	mov	r3, r3, lsr #2
	and	r3, r3, #1
	mov	r3, r3, asl #4
	orr	r1, r1, r3
	ldr	r3, [fp, #-12]
	mov	r3, r3, lsr #7
	and	r3, r3, #1
	mov	r3, r3, asl #3
	orr	r1, r1, r3
	ldr	r3, [fp, #-12]
	and	r3, r3, #1
	mov	r3, r3, asl #2
	orr	r1, r1, r3
	ldr	r3, [fp, #-12]
	mov	r3, r3, lsr #9
	and	r3, r3, #1
	mov	r3, r3, asl #1
	orr	r1, r1, r3
	ldr	r3, [fp, #-12]
	mov	r3, r3, lsr #5
	and	r3, r3, #1
	orr	r3, r1, r3
	ldr	r0, .L88+12
	mov	r3, r3, asl #1
	sub	ip, fp, #4
	add	r1, ip, r3
	mov	r3, r0
	add	r3, r1, r3
	ldrh	r3, [r3, #0]
	strh	r3, [r2, #0]	@ movhi
	ldr	r3, [fp, #-12]
	add	r3, r3, #1
	str	r3, [fp, #-12]
.L83:
	ldr	r2, [fp, #-12]
	ldr	r3, .L88+16
	cmp	r2, r3
	bls	.L84
	ldr	r3, [fp, #-8]
	add	r3, r3, #1024
	str	r3, [fp, #-8]
.L82:
	ldr	r2, [fp, #-8]
	ldr	r3, .L88+20
	cmp	r2, r3
	bls	.L85
	ldr	r3, .L88
	ldr	r3, [r3, #0]
	str	r3, [fp, #-16]
	mov	r3, #0
	str	r3, [fp, #-8]
	b	.L86
.L87:
	ldr	r3, [fp, #-8]
	mov	r3, r3, asl #1
	ldr	r2, [fp, #-16]
	add	r2, r2, r3
	ldr	r3, [fp, #-8]
	and	r1, r3, #16515072
	ldr	r3, [fp, #-8]
	mov	r3, r3, lsr #8
	and	r3, r3, #1
	mov	r3, r3, asl #17
	orr	r1, r1, r3
	ldr	r3, [fp, #-8]
	mov	r3, r3, lsr #4
	and	r3, r3, #1
	mov	r3, r3, asl #16
	orr	r1, r1, r3
	ldr	r3, [fp, #-8]
	and	r3, r3, #32768
	orr	r1, r1, r3
	ldr	r3, [fp, #-8]
	mov	r3, r3, lsr #13
	and	r3, r3, #1
	mov	r3, r3, asl #14
	orr	r1, r1, r3
	ldr	r3, [fp, #-8]
	mov	r3, r3, lsr #3
	and	r3, r3, #1
	mov	r3, r3, asl #13
	orr	r1, r1, r3
	ldr	r3, [fp, #-8]
	mov	r3, r3, lsr #14
	and	r3, r3, #1
	mov	r3, r3, asl #12
	orr	r1, r1, r3
	ldr	r3, [fp, #-8]
	mov	r3, r3, lsr #16
	and	r3, r3, #1
	mov	r3, r3, asl #11
	orr	r1, r1, r3
	ldr	r3, [fp, #-8]
	mov	r3, r3, lsr #2
	and	r3, r3, #1
	mov	r3, r3, asl #10
	orr	r1, r1, r3
	ldr	r3, [fp, #-8]
	mov	r3, r3, lsr #6
	and	r3, r3, #1
	mov	r3, r3, asl #9
	orr	r1, r1, r3
	ldr	r3, [fp, #-8]
	mov	r3, r3, lsr #17
	and	r3, r3, #1
	mov	r3, r3, asl #8
	orr	r1, r1, r3
	ldr	r3, [fp, #-8]
	and	r3, r3, #128
	orr	r1, r1, r3
	ldr	r3, [fp, #-8]
	mov	r3, r3, lsr #12
	and	r3, r3, #1
	mov	r3, r3, asl #6
	orr	r1, r1, r3
	ldr	r3, [fp, #-8]
	mov	r3, r3, lsr #10
	and	r3, r3, #1
	mov	r3, r3, asl #5
	orr	r1, r1, r3
	ldr	r3, [fp, #-8]
	and	r3, r3, #1
	mov	r3, r3, asl #4
	orr	r1, r1, r3
	ldr	r3, [fp, #-8]
	mov	r3, r3, lsr #5
	and	r3, r3, #1
	mov	r3, r3, asl #3
	orr	r1, r1, r3
	ldr	r3, [fp, #-8]
	mov	r3, r3, lsr #11
	and	r3, r3, #1
	mov	r3, r3, asl #2
	orr	r1, r1, r3
	ldr	r3, [fp, #-8]
	and	r3, r3, #2
	orr	r1, r1, r3
	ldr	r3, [fp, #-8]
	mov	r3, r3, lsr #9
	and	r3, r3, #1
	orr	r3, r1, r3
	add	r3, r3, #3784704
	add	r3, r3, #4096
	mov	r3, r3, asl #1
	ldr	r1, [fp, #-16]
	add	r3, r1, r3
	ldrh	r3, [r3, #0]
	strh	r3, [r2, #0]	@ movhi
	ldr	r3, [fp, #-8]
	add	r3, r3, #1
	str	r3, [fp, #-8]
.L86:
	ldr	r2, [fp, #-8]
	ldr	r3, .L88+24
	cmp	r2, r3
	bls	.L87
	sub	sp, fp, #4
	ldmfd	sp!, {fp, pc}
.L89:
	.align	2
.L88:
	.word	memory_region_cpu1
	.word	4194303
	.word	16776192
	.word	-2060
	.word	1023
	.word	3264511
	.word	393215
	.fnend
	.size	kof2000_decrypt_68k, .-kof2000_decrypt_68k
	.section	.rodata
	.align	2
.LC10:
	.word	1048576
	.word	2621440
	.word	3145728
	.word	1572864
	.word	0
	.word	3670016
	.word	2097152
	.word	524288
	.text
	.align	2
	.global	kof2002_decrypt_68k
	.type	kof2002_decrypt_68k, %function
kof2002_decrypt_68k:
	.fnstart
	@ args = 0, pretend = 0, frame = 48
	@ frame_needed = 1, uses_anonymous_args = 0
	stmfd	sp!, {fp, lr}
	.save {fp, lr}
	.setfp fp, sp, #4
	add	fp, sp, #4
	.pad #48
	sub	sp, sp, #48
	ldr	r3, .L95
	sub	ip, fp, #48
	mov	lr, r3
	ldmia	lr!, {r0, r1, r2, r3}
	stmia	ip!, {r0, r1, r2, r3}
	ldmia	lr, {r0, r1, r2, r3}
	stmia	ip, {r0, r1, r2, r3}
	ldr	r3, .L95+4
	ldr	r3, [r3, #0]
	add	r3, r3, #1048576
	str	r3, [fp, #-12]
	mov	r0, #4194304
	bl	malloc
	mov	r3, r0
	str	r3, [fp, #-16]
	ldr	r3, [fp, #-16]
	cmp	r3, #0
	beq	.L91
	ldr	r2, [fp, #-16]
	ldr	r3, [fp, #-12]
	mov	ip, #4194304
	mov	r0, r2
	mov	r1, r3
	mov	r3, ip
	mov	r2, r3
	bl	memcpy
	mov	r3, #0
	str	r3, [fp, #-8]
	b	.L92
.L93:
	ldr	r2, [fp, #-12]
	ldr	r3, [fp, #-8]
	mov	r3, r3, asl #19
	add	r2, r2, r3
	ldr	r1, [fp, #-16]
	ldr	r3, [fp, #-8]
	mvn	ip, #43
	mov	r3, r3, asl #2
	sub	lr, fp, #4
	add	r0, lr, r3
	mov	r3, ip
	add	r3, r0, r3
	ldr	r3, [r3, #0]
	add	r3, r1, r3
	mov	ip, #524288
	mov	r0, r2
	mov	r1, r3
	mov	r3, ip
	mov	r2, r3
	bl	memcpy
	ldr	r3, [fp, #-8]
	add	r3, r3, #1
	str	r3, [fp, #-8]
.L92:
	ldr	r3, [fp, #-8]
	cmp	r3, #7
	bls	.L93
	ldr	r0, [fp, #-16]
	bl	free
	mov	r3, #1
	b	.L94
.L91:
	mov	r3, #0
.L94:
	mov	r0, r3
	sub	sp, fp, #4
	ldmfd	sp!, {fp, pc}
.L96:
	.align	2
.L95:
	.word	.LC10
	.word	memory_region_cpu1
	.fnend
	.size	kof2002_decrypt_68k, .-kof2002_decrypt_68k
	.align	2
	.global	matrim_decrypt_68k
	.type	matrim_decrypt_68k, %function
matrim_decrypt_68k:
	.fnstart
	@ args = 0, pretend = 0, frame = 48
	@ frame_needed = 1, uses_anonymous_args = 0
	stmfd	sp!, {fp, lr}
	.save {fp, lr}
	.setfp fp, sp, #4
	add	fp, sp, #4
	.pad #48
	sub	sp, sp, #48
	ldr	r3, .L102
	sub	ip, fp, #48
	mov	lr, r3
	ldmia	lr!, {r0, r1, r2, r3}
	stmia	ip!, {r0, r1, r2, r3}
	ldmia	lr, {r0, r1, r2, r3}
	stmia	ip, {r0, r1, r2, r3}
	ldr	r3, .L102+4
	ldr	r3, [r3, #0]
	add	r3, r3, #1048576
	str	r3, [fp, #-12]
	mov	r0, #4194304
	bl	malloc
	mov	r3, r0
	str	r3, [fp, #-16]
	ldr	r3, [fp, #-16]
	cmp	r3, #0
	beq	.L98
	ldr	r2, [fp, #-16]
	ldr	r3, [fp, #-12]
	mov	ip, #4194304
	mov	r0, r2
	mov	r1, r3
	mov	r3, ip
	mov	r2, r3
	bl	memcpy
	mov	r3, #0
	str	r3, [fp, #-8]
	b	.L99
.L100:
	ldr	r2, [fp, #-12]
	ldr	r3, [fp, #-8]
	mov	r3, r3, asl #19
	add	r2, r2, r3
	ldr	r1, [fp, #-16]
	ldr	r3, [fp, #-8]
	mvn	ip, #43
	mov	r3, r3, asl #2
	sub	lr, fp, #4
	add	r0, lr, r3
	mov	r3, ip
	add	r3, r0, r3
	ldr	r3, [r3, #0]
	add	r3, r1, r3
	mov	ip, #524288
	mov	r0, r2
	mov	r1, r3
	mov	r3, ip
	mov	r2, r3
	bl	memcpy
	ldr	r3, [fp, #-8]
	add	r3, r3, #1
	str	r3, [fp, #-8]
.L99:
	ldr	r3, [fp, #-8]
	cmp	r3, #7
	bls	.L100
	ldr	r0, [fp, #-16]
	bl	free
	mov	r3, #1
	b	.L101
.L98:
	mov	r3, #0
.L101:
	mov	r0, r3
	sub	sp, fp, #4
	ldmfd	sp!, {fp, pc}
.L103:
	.align	2
.L102:
	.word	.LC10
	.word	memory_region_cpu1
	.fnend
	.size	matrim_decrypt_68k, .-matrim_decrypt_68k
	.section	.rodata
	.align	2
.LC9:
	.word	0
	.word	524288
	.word	7340032
	.word	6815744
	.word	5242880
	.word	1572864
	.word	2097152
	.word	4718592
	.word	3145728
	.word	7864320
	.word	6291456
	.word	2621440
	.word	1048576
	.word	5767168
	.word	4194304
	.word	3670016
	.text
	.align	2
	.global	samsho5_decrypt_68k
	.type	samsho5_decrypt_68k, %function
samsho5_decrypt_68k:
	.fnstart
	@ args = 0, pretend = 0, frame = 80
	@ frame_needed = 1, uses_anonymous_args = 0
	stmfd	sp!, {fp, lr}
	.save {fp, lr}
	.setfp fp, sp, #4
	add	fp, sp, #4
	.pad #80
	sub	sp, sp, #80
	ldr	r3, .L109
	sub	ip, fp, #80
	mov	lr, r3
	ldmia	lr!, {r0, r1, r2, r3}
	stmia	ip!, {r0, r1, r2, r3}
	ldmia	lr!, {r0, r1, r2, r3}
	stmia	ip!, {r0, r1, r2, r3}
	ldmia	lr!, {r0, r1, r2, r3}
	stmia	ip!, {r0, r1, r2, r3}
	ldmia	lr, {r0, r1, r2, r3}
	stmia	ip, {r0, r1, r2, r3}
	ldr	r3, .L109+4
	ldr	r3, [r3, #0]
	str	r3, [fp, #-12]
	mov	r0, #8388608
	bl	malloc
	mov	r3, r0
	str	r3, [fp, #-16]
	ldr	r3, [fp, #-16]
	cmp	r3, #0
	beq	.L105
	ldr	r2, [fp, #-16]
	ldr	r3, [fp, #-12]
	mov	ip, #8388608
	mov	r0, r2
	mov	r1, r3
	mov	r3, ip
	mov	r2, r3
	bl	memcpy
	mov	r3, #0
	str	r3, [fp, #-8]
	b	.L106
.L107:
	ldr	r2, [fp, #-12]
	ldr	r3, [fp, #-8]
	mov	r3, r3, asl #19
	add	r2, r2, r3
	ldr	r1, [fp, #-16]
	ldr	r3, [fp, #-8]
	mvn	ip, #75
	mov	r3, r3, asl #2
	sub	lr, fp, #4
	add	r0, lr, r3
	mov	r3, ip
	add	r3, r0, r3
	ldr	r3, [r3, #0]
	add	r3, r1, r3
	mov	ip, #524288
	mov	r0, r2
	mov	r1, r3
	mov	r3, ip
	mov	r2, r3
	bl	memcpy
	ldr	r3, [fp, #-8]
	add	r3, r3, #1
	str	r3, [fp, #-8]
.L106:
	ldr	r3, [fp, #-8]
	cmp	r3, #15
	bls	.L107
	ldr	r0, [fp, #-16]
	bl	free
	mov	r3, #1
	b	.L108
.L105:
	mov	r3, #0
.L108:
	mov	r0, r3
	sub	sp, fp, #4
	ldmfd	sp!, {fp, pc}
.L110:
	.align	2
.L109:
	.word	.LC9
	.word	memory_region_cpu1
	.fnend
	.size	samsho5_decrypt_68k, .-samsho5_decrypt_68k
	.section	.rodata
	.align	2
.LC8:
	.word	0
	.word	524288
	.word	5242880
	.word	4718592
	.word	6291456
	.word	5767168
	.word	7340032
	.word	2621440
	.word	1048576
	.word	6815744
	.word	4194304
	.word	7864320
	.word	2097152
	.word	3670016
	.word	3145728
	.word	1572864
	.text
	.align	2
	.global	samsh5sp_decrypt_68k
	.type	samsh5sp_decrypt_68k, %function
samsh5sp_decrypt_68k:
	.fnstart
	@ args = 0, pretend = 0, frame = 80
	@ frame_needed = 1, uses_anonymous_args = 0
	stmfd	sp!, {fp, lr}
	.save {fp, lr}
	.setfp fp, sp, #4
	add	fp, sp, #4
	.pad #80
	sub	sp, sp, #80
	ldr	r3, .L116
	sub	ip, fp, #80
	mov	lr, r3
	ldmia	lr!, {r0, r1, r2, r3}
	stmia	ip!, {r0, r1, r2, r3}
	ldmia	lr!, {r0, r1, r2, r3}
	stmia	ip!, {r0, r1, r2, r3}
	ldmia	lr!, {r0, r1, r2, r3}
	stmia	ip!, {r0, r1, r2, r3}
	ldmia	lr, {r0, r1, r2, r3}
	stmia	ip, {r0, r1, r2, r3}
	ldr	r3, .L116+4
	ldr	r3, [r3, #0]
	str	r3, [fp, #-12]
	mov	r0, #8388608
	bl	malloc
	mov	r3, r0
	str	r3, [fp, #-16]
	ldr	r3, [fp, #-16]
	cmp	r3, #0
	beq	.L112
	ldr	r2, [fp, #-16]
	ldr	r3, [fp, #-12]
	mov	ip, #8388608
	mov	r0, r2
	mov	r1, r3
	mov	r3, ip
	mov	r2, r3
	bl	memcpy
	mov	r3, #0
	str	r3, [fp, #-8]
	b	.L113
.L114:
	ldr	r2, [fp, #-12]
	ldr	r3, [fp, #-8]
	mov	r3, r3, asl #19
	add	r2, r2, r3
	ldr	r1, [fp, #-16]
	ldr	r3, [fp, #-8]
	mvn	ip, #75
	mov	r3, r3, asl #2
	sub	lr, fp, #4
	add	r0, lr, r3
	mov	r3, ip
	add	r3, r0, r3
	ldr	r3, [r3, #0]
	add	r3, r1, r3
	mov	ip, #524288
	mov	r0, r2
	mov	r1, r3
	mov	r3, ip
	mov	r2, r3
	bl	memcpy
	ldr	r3, [fp, #-8]
	add	r3, r3, #1
	str	r3, [fp, #-8]
.L113:
	ldr	r3, [fp, #-8]
	cmp	r3, #15
	bls	.L114
	ldr	r0, [fp, #-16]
	bl	free
	mov	r3, #1
	b	.L115
.L112:
	mov	r3, #0
.L115:
	mov	r0, r3
	sub	sp, fp, #4
	ldmfd	sp!, {fp, pc}
.L117:
	.align	2
.L116:
	.word	.LC8
	.word	memory_region_cpu1
	.fnend
	.size	samsh5sp_decrypt_68k, .-samsh5sp_decrypt_68k
	.section	.rodata
	.align	2
.LC1:
	.byte	-62
	.byte	75
	.byte	116
	.byte	-3
	.byte	11
	.byte	52
	.byte	-21
	.byte	-41
	.byte	16
	.byte	109
	.byte	-7
	.byte	-50
	.byte	93
	.byte	-43
	.byte	97
	.byte	41
	.byte	-11
	.byte	-66
	.byte	13
	.byte	-126
	.byte	114
	.byte	69
	.byte	15
	.byte	36
	.byte	-77
	.byte	52
	.byte	27
	.byte	-103
	.byte	-22
	.byte	9
	.byte	-13
	.byte	3
	.align	2
.LC7:
	.byte	54
	.byte	9
	.byte	-80
	.byte	100
	.byte	-107
	.byte	15
	.byte	-112
	.byte	66
	.byte	110
	.byte	15
	.byte	48
	.byte	-10
	.byte	-27
	.byte	8
	.byte	48
	.byte	100
	.byte	8
	.byte	4
	.byte	0
	.byte	47
	.byte	114
	.byte	9
	.byte	-96
	.byte	19
	.byte	-55
	.byte	11
	.byte	-96
	.byte	62
	.byte	-62
	.byte	0
	.byte	64
	.byte	43
	.text
	.align	2
	.global	mslug5_decrypt_68k
	.type	mslug5_decrypt_68k, %function
mslug5_decrypt_68k:
	.fnstart
	@ args = 0, pretend = 0, frame = 88
	@ frame_needed = 1, uses_anonymous_args = 0
	stmfd	sp!, {fp, lr}
	.save {fp, lr}
	.setfp fp, sp, #4
	add	fp, sp, #4
	.pad #88
	sub	sp, sp, #88
	ldr	r3, .L131
	mov	ip, #32
	sub	r2, fp, #56
	mov	r0, r2
	mov	r1, r3
	mov	r3, ip
	mov	r2, r3
	bl	memcpy
	ldr	r3, .L131+4
	mov	ip, #32
	sub	r2, fp, #88
	mov	r0, r2
	mov	r1, r3
	mov	r3, ip
	mov	r2, r3
	bl	memcpy
	ldr	r3, .L131+8
	ldr	r3, [r3, #0]
	str	r3, [fp, #-12]
	mov	r0, #8388608
	bl	malloc
	mov	r3, r0
	str	r3, [fp, #-16]
	ldr	r3, [fp, #-16]
	cmp	r3, #0
	beq	.L119
	mov	r3, #0
	str	r3, [fp, #-8]
	b	.L120
.L121:
	ldr	r2, [fp, #-12]
	ldr	r3, [fp, #-8]
	add	r3, r2, r3
	ldr	r1, [fp, #-12]
	ldr	r2, [fp, #-8]
	add	r2, r1, r2
	ldrb	r1, [r2, #0]	@ zero_extendqisi2
	ldr	r2, [fp, #-8]
	and	r2, r2, #31
	mvn	ip, #51
	sub	lr, fp, #4
	add	r0, lr, r2
	mov	r2, ip
	add	r2, r0, r2
	ldrb	r2, [r2, #0]	@ zero_extendqisi2
	eor	r2, r1, r2
	and	r2, r2, #255
	strb	r2, [r3, #0]
	ldr	r3, [fp, #-8]
	add	r3, r3, #1
	str	r3, [fp, #-8]
.L120:
	ldr	r2, [fp, #-8]
	ldr	r3, .L131+12
	cmp	r2, r3
	bls	.L121
	mov	r3, #1048576
	str	r3, [fp, #-8]
	b	.L122
.L123:
	ldr	r2, [fp, #-12]
	ldr	r3, [fp, #-8]
	add	r3, r2, r3
	ldr	r1, [fp, #-12]
	ldr	r2, [fp, #-8]
	add	r2, r1, r2
	ldrb	r1, [r2, #0]	@ zero_extendqisi2
	ldr	r2, [fp, #-8]
	and	r2, r2, #31
	mvn	ip, #83
	sub	lr, fp, #4
	add	r0, lr, r2
	mov	r2, ip
	add	r2, r0, r2
	ldrb	r2, [r2, #0]	@ zero_extendqisi2
	eor	r2, r1, r2
	and	r2, r2, #255
	strb	r2, [r3, #0]
	ldr	r3, [fp, #-8]
	add	r3, r3, #1
	str	r3, [fp, #-8]
.L122:
	ldr	r2, [fp, #-8]
	ldr	r3, .L131+16
	cmp	r2, r3
	bls	.L123
	mov	r3, #1048576
	str	r3, [fp, #-8]
	b	.L124
.L125:
	ldr	r3, [fp, #-8]
	add	r3, r3, #1
	ldr	r2, [fp, #-12]
	add	r3, r2, r3
	ldrb	r3, [r3, #0]	@ zero_extendqisi2
	mov	r2, r3
	ldr	r3, [fp, #-8]
	add	r3, r3, #2
	ldr	r1, [fp, #-12]
	add	r3, r1, r3
	ldrb	r3, [r3, #0]	@ zero_extendqisi2
	mov	r3, r3, asl #8
	mov	r3, r3, asl #16
	mov	r3, r3, lsr #16
	orr	r3, r2, r3
	mov	r3, r3, asl #16
	mov	r3, r3, lsr #16
	strh	r3, [fp, #-18]	@ movhi
	ldrh	r3, [fp, #-18]
	mov	r3, r3, lsr #15
	mov	r3, r3, asl #16
	mov	r3, r3, lsr #16
	mov	r3, r3, asl #15
	mov	r3, r3, asl #16
	mov	r2, r3, lsr #16
	ldrh	r3, [fp, #-18]
	mov	r3, r3, lsr #14
	mov	r3, r3, asl #16
	mov	r3, r3, lsr #16
	and	r3, r3, #1
	mov	r3, r3, asl #14
	mov	r3, r3, asl #16
	mov	r3, r3, lsr #16
	orr	r3, r2, r3
	mov	r3, r3, asl #16
	mov	r2, r3, lsr #16
	ldrh	r3, [fp, #-18]
	mov	r3, r3, lsr #13
	mov	r3, r3, asl #16
	mov	r3, r3, lsr #16
	and	r3, r3, #1
	mov	r3, r3, asl #13
	mov	r3, r3, asl #16
	mov	r3, r3, lsr #16
	orr	r3, r2, r3
	mov	r3, r3, asl #16
	mov	r2, r3, lsr #16
	ldrh	r3, [fp, #-18]
	mov	r3, r3, lsr #12
	mov	r3, r3, asl #16
	mov	r3, r3, lsr #16
	and	r3, r3, #1
	mov	r3, r3, asl #12
	mov	r3, r3, asl #16
	mov	r3, r3, lsr #16
	orr	r3, r2, r3
	mov	r3, r3, asl #16
	mov	r2, r3, lsr #16
	ldrh	r3, [fp, #-18]
	mov	r3, r3, lsr #10
	mov	r3, r3, asl #16
	mov	r3, r3, lsr #16
	and	r3, r3, #1
	mov	r3, r3, asl #11
	mov	r3, r3, asl #16
	mov	r3, r3, lsr #16
	orr	r3, r2, r3
	mov	r3, r3, asl #16
	mov	r2, r3, lsr #16
	ldrh	r3, [fp, #-18]
	mov	r3, r3, lsr #11
	mov	r3, r3, asl #16
	mov	r3, r3, lsr #16
	and	r3, r3, #1
	mov	r3, r3, asl #10
	mov	r3, r3, asl #16
	mov	r3, r3, lsr #16
	orr	r3, r2, r3
	mov	r3, r3, asl #16
	mov	r2, r3, lsr #16
	ldrh	r3, [fp, #-18]
	mov	r3, r3, lsr #8
	mov	r3, r3, asl #16
	mov	r3, r3, lsr #16
	and	r3, r3, #1
	mov	r3, r3, asl #9
	mov	r3, r3, asl #16
	mov	r3, r3, lsr #16
	orr	r3, r2, r3
	mov	r3, r3, asl #16
	mov	r2, r3, lsr #16
	ldrh	r3, [fp, #-18]
	mov	r3, r3, lsr #9
	mov	r3, r3, asl #16
	mov	r3, r3, lsr #16
	and	r3, r3, #1
	mov	r3, r3, asl #8
	mov	r3, r3, asl #16
	mov	r3, r3, lsr #16
	orr	r3, r2, r3
	mov	r3, r3, asl #16
	mov	r2, r3, lsr #16
	ldrh	r3, [fp, #-18]
	mov	r3, r3, lsr #6
	mov	r3, r3, asl #16
	mov	r3, r3, lsr #16
	mov	r3, r3, asl #7
	mov	r3, r3, asl #16
	mov	r3, r3, lsr #16
	and	r3, r3, #255
	mov	r3, r3, asl #16
	mov	r3, r3, lsr #16
	orr	r3, r2, r3
	mov	r3, r3, asl #16
	mov	r2, r3, lsr #16
	ldrh	r3, [fp, #-18]
	mov	r3, r3, lsr #7
	mov	r3, r3, asl #16
	mov	r3, r3, lsr #16
	and	r3, r3, #1
	mov	r3, r3, asl #6
	mov	r3, r3, asl #16
	mov	r3, r3, lsr #16
	orr	r3, r2, r3
	mov	r3, r3, asl #16
	mov	r2, r3, lsr #16
	ldrh	r3, [fp, #-18]
	mov	r3, r3, lsr #4
	mov	r3, r3, asl #16
	mov	r3, r3, lsr #16
	and	r3, r3, #1
	mov	r3, r3, asl #5
	mov	r3, r3, asl #16
	mov	r3, r3, lsr #16
	orr	r3, r2, r3
	mov	r3, r3, asl #16
	mov	r2, r3, lsr #16
	ldrh	r3, [fp, #-18]
	mov	r3, r3, lsr #5
	mov	r3, r3, asl #16
	mov	r3, r3, lsr #16
	and	r3, r3, #1
	mov	r3, r3, asl #4
	mov	r3, r3, asl #16
	mov	r3, r3, lsr #16
	orr	r3, r2, r3
	mov	r3, r3, asl #16
	mov	r2, r3, lsr #16
	ldrh	r3, [fp, #-18]
	mov	r3, r3, lsr #3
	mov	r3, r3, asl #16
	mov	r3, r3, lsr #16
	and	r3, r3, #1
	mov	r3, r3, asl #3
	mov	r3, r3, asl #16
	mov	r3, r3, lsr #16
	orr	r3, r2, r3
	mov	r3, r3, asl #16
	mov	r2, r3, lsr #16
	ldrh	r3, [fp, #-18]
	mov	r3, r3, lsr #2
	mov	r3, r3, asl #16
	mov	r3, r3, lsr #16
	and	r3, r3, #1
	mov	r3, r3, asl #2
	mov	r3, r3, asl #16
	mov	r3, r3, lsr #16
	orr	r3, r2, r3
	mov	r3, r3, asl #16
	mov	r2, r3, lsr #16
	ldrh	r3, [fp, #-18]
	mov	r3, r3, lsr #1
	mov	r3, r3, asl #16
	mov	r3, r3, lsr #16
	and	r3, r3, #1
	mov	r3, r3, asl #1
	mov	r3, r3, asl #16
	mov	r3, r3, lsr #16
	orr	r3, r2, r3
	mov	r3, r3, asl #16
	mov	r2, r3, lsr #16
	ldrh	r3, [fp, #-18]
	and	r3, r3, #1
	mov	r3, r3, asl #16
	mov	r3, r3, lsr #16
	orr	r3, r2, r3
	mov	r3, r3, asl #16
	mov	r3, r3, lsr #16
	strh	r3, [fp, #-18]	@ movhi
	ldr	r3, [fp, #-8]
	add	r3, r3, #1
	ldr	r2, [fp, #-12]
	add	r3, r2, r3
	ldrh	r2, [fp, #-18]	@ movhi
	and	r2, r2, #255
	strb	r2, [r3, #0]
	ldr	r3, [fp, #-8]
	add	r3, r3, #2
	ldr	r2, [fp, #-12]
	add	r3, r2, r3
	ldrh	r2, [fp, #-18]
	mov	r2, r2, lsr #8
	mov	r2, r2, asl #16
	mov	r2, r2, lsr #16
	and	r2, r2, #255
	strb	r2, [r3, #0]
	ldr	r3, [fp, #-8]
	add	r3, r3, #4
	str	r3, [fp, #-8]
.L124:
	ldr	r2, [fp, #-8]
	ldr	r3, .L131+16
	cmp	r2, r3
	bls	.L125
	ldr	r2, [fp, #-16]
	ldr	r3, [fp, #-12]
	mov	ip, #8388608
	mov	r0, r2
	mov	r1, r3
	mov	r3, ip
	mov	r2, r3
	bl	memcpy
	mov	r3, #0
	str	r3, [fp, #-8]
	b	.L126
.L127:
	ldr	r3, [fp, #-8]
	and	r2, r3, #240
	ldr	r3, [fp, #-8]
	and	r3, r3, #15
	mov	r3, r3, lsr #1
	and	r3, r3, #1
	mov	r1, r3, asl #3
	ldr	r3, [fp, #-8]
	and	r3, r3, #1
	mov	r3, r3, asl #2
	orr	r1, r1, r3
	ldr	r3, [fp, #-8]
	and	r3, r3, #15
	mov	r3, r3, lsr #3
	and	r3, r3, #1
	mov	r3, r3, asl #1
	orr	r1, r1, r3
	ldr	r3, [fp, #-8]
	and	r3, r3, #15
	mov	r3, r3, lsr #2
	and	r3, r3, #1
	orr	r3, r1, r3
	add	r3, r2, r3
	str	r3, [fp, #-24]
	ldr	r2, [fp, #-12]
	ldr	r3, [fp, #-8]
	mov	r3, r3, asl #16
	add	r2, r2, r3
	ldr	r1, [fp, #-16]
	ldr	r3, [fp, #-24]
	mov	r3, r3, asl #16
	add	r3, r1, r3
	mov	ip, #65536
	mov	r0, r2
	mov	r1, r3
	mov	r3, ip
	mov	r2, r3
	bl	memcpy
	ldr	r3, [fp, #-8]
	add	r3, r3, #1
	str	r3, [fp, #-8]
.L126:
	ldr	r3, [fp, #-8]
	cmp	r3, #15
	bls	.L127
	mov	r3, #1048576
	str	r3, [fp, #-8]
	b	.L128
.L129:
	ldr	r2, [fp, #-8]
	ldr	r3, .L131+20
	and	r3, r2, r3
	ldr	r2, [fp, #-8]
	and	r2, r2, #3840
	eor	r2, r2, #1792
	add	r2, r3, r2
	ldr	r3, [fp, #-8]
	and	r3, r3, #1044480
	mov	r3, r3, lsr #17
	mov	r3, r3, asl #7
	and	r1, r3, #255
	ldr	r3, [fp, #-8]
	and	r3, r3, #1044480
	mov	r3, r3, lsr #16
	and	r3, r3, #1
	mov	r3, r3, asl #6
	orr	r1, r1, r3
	ldr	r3, [fp, #-8]
	and	r3, r3, #1044480
	mov	r3, r3, lsr #19
	and	r3, r3, #1
	mov	r3, r3, asl #5
	orr	r1, r1, r3
	ldr	r3, [fp, #-8]
	and	r3, r3, #1044480
	mov	r3, r3, lsr #18
	and	r3, r3, #1
	mov	r3, r3, asl #4
	orr	r1, r1, r3
	ldr	r3, [fp, #-8]
	and	r3, r3, #1044480
	mov	r3, r3, lsr #13
	and	r3, r3, #1
	mov	r3, r3, asl #3
	orr	r1, r1, r3
	ldr	r3, [fp, #-8]
	and	r3, r3, #1044480
	mov	r3, r3, lsr #12
	and	r3, r3, #1
	mov	r3, r3, asl #2
	orr	r1, r1, r3
	ldr	r3, [fp, #-8]
	and	r3, r3, #1044480
	mov	r3, r3, lsr #15
	and	r3, r3, #1
	mov	r3, r3, asl #1
	orr	r1, r1, r3
	ldr	r3, [fp, #-8]
	and	r3, r3, #1044480
	mov	r3, r3, lsr #14
	and	r3, r3, #1
	orr	r3, r1, r3
	mov	r3, r3, asl #12
	add	r3, r2, r3
	str	r3, [fp, #-24]
	ldr	r2, [fp, #-12]
	ldr	r3, [fp, #-8]
	add	r2, r2, r3
	ldr	r1, [fp, #-16]
	ldr	r3, [fp, #-24]
	add	r3, r1, r3
	mov	ip, #256
	mov	r0, r2
	mov	r1, r3
	mov	r3, ip
	mov	r2, r3
	bl	memcpy
	ldr	r3, [fp, #-8]
	add	r3, r3, #256
	str	r3, [fp, #-8]
.L128:
	ldr	r2, [fp, #-8]
	ldr	r3, .L131+16
	cmp	r2, r3
	bls	.L129
	ldr	r2, [fp, #-16]
	ldr	r3, [fp, #-12]
	mov	ip, #8388608
	mov	r0, r2
	mov	r1, r3
	mov	r3, ip
	mov	r2, r3
	bl	memcpy
	ldr	r3, [fp, #-12]
	add	r2, r3, #1048576
	ldr	r3, [fp, #-16]
	add	r3, r3, #7340032
	mov	ip, #1048576
	mov	r0, r2
	mov	r1, r3
	mov	r3, ip
	mov	r2, r3
	bl	memcpy
	ldr	r3, [fp, #-12]
	add	r2, r3, #2097152
	ldr	r3, [fp, #-16]
	add	r3, r3, #1048576
	mov	ip, #6291456
	mov	r0, r2
	mov	r1, r3
	mov	r3, ip
	mov	r2, r3
	bl	memcpy
	ldr	r0, [fp, #-16]
	bl	free
	mov	r3, #1
	b	.L130
.L119:
	mov	r3, #0
.L130:
	mov	r0, r3
	sub	sp, fp, #4
	ldmfd	sp!, {fp, pc}
.L132:
	.align	2
.L131:
	.word	.LC1
	.word	.LC7
	.word	memory_region_cpu1
	.word	1048575
	.word	8388607
	.word	15728895
	.fnend
	.size	mslug5_decrypt_68k, .-mslug5_decrypt_68k
	.section	.rodata
	.align	2
.LC3:
	.byte	59
	.byte	106
	.byte	-9
	.byte	-73
	.byte	-24
	.byte	-87
	.byte	32
	.byte	-103
	.byte	-97
	.byte	57
	.byte	52
	.byte	12
	.byte	-61
	.byte	-102
	.byte	-91
	.byte	-56
	.byte	-72
	.byte	24
	.byte	-50
	.byte	86
	.byte	-108
	.byte	68
	.byte	-29
	.byte	122
	.byte	-9
	.byte	-35
	.byte	66
	.byte	-16
	.byte	24
	.byte	96
	.byte	-110
	.byte	-97
	.align	2
.LC6:
	.byte	105
	.byte	11
	.byte	96
	.byte	-42
	.byte	79
	.byte	1
	.byte	64
	.byte	26
	.byte	-97
	.byte	11
	.byte	-16
	.byte	117
	.byte	88
	.byte	14
	.byte	96
	.byte	-76
	.byte	20
	.byte	4
	.byte	32
	.byte	-28
	.byte	-71
	.byte	13
	.byte	16
	.byte	-119
	.byte	-21
	.byte	7
	.byte	48
	.byte	-112
	.byte	80
	.byte	14
	.byte	32
	.byte	38
	.text
	.align	2
	.global	svc_px_decrypt
	.type	svc_px_decrypt, %function
svc_px_decrypt:
	.fnstart
	@ args = 0, pretend = 0, frame = 88
	@ frame_needed = 1, uses_anonymous_args = 0
	stmfd	sp!, {fp, lr}
	.save {fp, lr}
	.setfp fp, sp, #4
	add	fp, sp, #4
	.pad #88
	sub	sp, sp, #88
	ldr	r3, .L146
	mov	ip, #32
	sub	r2, fp, #56
	mov	r0, r2
	mov	r1, r3
	mov	r3, ip
	mov	r2, r3
	bl	memcpy
	ldr	r3, .L146+4
	mov	ip, #32
	sub	r2, fp, #88
	mov	r0, r2
	mov	r1, r3
	mov	r3, ip
	mov	r2, r3
	bl	memcpy
	ldr	r3, .L146+8
	ldr	r3, [r3, #0]
	str	r3, [fp, #-12]
	mov	r0, #8388608
	bl	malloc
	mov	r3, r0
	str	r3, [fp, #-16]
	ldr	r3, [fp, #-16]
	cmp	r3, #0
	beq	.L134
	mov	r3, #0
	str	r3, [fp, #-8]
	b	.L135
.L136:
	ldr	r2, [fp, #-12]
	ldr	r3, [fp, #-8]
	add	r3, r2, r3
	ldr	r1, [fp, #-12]
	ldr	r2, [fp, #-8]
	add	r2, r1, r2
	ldrb	r1, [r2, #0]	@ zero_extendqisi2
	ldr	r2, [fp, #-8]
	and	r2, r2, #31
	mvn	ip, #51
	sub	lr, fp, #4
	add	r0, lr, r2
	mov	r2, ip
	add	r2, r0, r2
	ldrb	r2, [r2, #0]	@ zero_extendqisi2
	eor	r2, r1, r2
	and	r2, r2, #255
	strb	r2, [r3, #0]
	ldr	r3, [fp, #-8]
	add	r3, r3, #1
	str	r3, [fp, #-8]
.L135:
	ldr	r2, [fp, #-8]
	ldr	r3, .L146+12
	cmp	r2, r3
	bls	.L136
	mov	r3, #1048576
	str	r3, [fp, #-8]
	b	.L137
.L138:
	ldr	r2, [fp, #-12]
	ldr	r3, [fp, #-8]
	add	r3, r2, r3
	ldr	r1, [fp, #-12]
	ldr	r2, [fp, #-8]
	add	r2, r1, r2
	ldrb	r1, [r2, #0]	@ zero_extendqisi2
	ldr	r2, [fp, #-8]
	and	r2, r2, #31
	mvn	ip, #83
	sub	lr, fp, #4
	add	r0, lr, r2
	mov	r2, ip
	add	r2, r0, r2
	ldrb	r2, [r2, #0]	@ zero_extendqisi2
	eor	r2, r1, r2
	and	r2, r2, #255
	strb	r2, [r3, #0]
	ldr	r3, [fp, #-8]
	add	r3, r3, #1
	str	r3, [fp, #-8]
.L137:
	ldr	r2, [fp, #-8]
	ldr	r3, .L146+16
	cmp	r2, r3
	bls	.L138
	mov	r3, #1048576
	str	r3, [fp, #-8]
	b	.L139
.L140:
	ldr	r3, [fp, #-8]
	add	r3, r3, #1
	ldr	r2, [fp, #-12]
	add	r3, r2, r3
	ldrb	r3, [r3, #0]	@ zero_extendqisi2
	mov	r2, r3
	ldr	r3, [fp, #-8]
	add	r3, r3, #2
	ldr	r1, [fp, #-12]
	add	r3, r1, r3
	ldrb	r3, [r3, #0]	@ zero_extendqisi2
	mov	r3, r3, asl #8
	mov	r3, r3, asl #16
	mov	r3, r3, lsr #16
	orr	r3, r2, r3
	mov	r3, r3, asl #16
	mov	r3, r3, lsr #16
	strh	r3, [fp, #-18]	@ movhi
	ldrh	r3, [fp, #-18]
	mov	r3, r3, lsr #15
	mov	r3, r3, asl #16
	mov	r3, r3, lsr #16
	mov	r3, r3, asl #15
	mov	r3, r3, asl #16
	mov	r2, r3, lsr #16
	ldrh	r3, [fp, #-18]
	mov	r3, r3, lsr #14
	mov	r3, r3, asl #16
	mov	r3, r3, lsr #16
	and	r3, r3, #1
	mov	r3, r3, asl #14
	mov	r3, r3, asl #16
	mov	r3, r3, lsr #16
	orr	r3, r2, r3
	mov	r3, r3, asl #16
	mov	r2, r3, lsr #16
	ldrh	r3, [fp, #-18]
	mov	r3, r3, lsr #13
	mov	r3, r3, asl #16
	mov	r3, r3, lsr #16
	and	r3, r3, #1
	mov	r3, r3, asl #13
	mov	r3, r3, asl #16
	mov	r3, r3, lsr #16
	orr	r3, r2, r3
	mov	r3, r3, asl #16
	mov	r2, r3, lsr #16
	ldrh	r3, [fp, #-18]
	mov	r3, r3, lsr #12
	mov	r3, r3, asl #16
	mov	r3, r3, lsr #16
	and	r3, r3, #1
	mov	r3, r3, asl #12
	mov	r3, r3, asl #16
	mov	r3, r3, lsr #16
	orr	r3, r2, r3
	mov	r3, r3, asl #16
	mov	r2, r3, lsr #16
	ldrh	r3, [fp, #-18]
	mov	r3, r3, lsr #10
	mov	r3, r3, asl #16
	mov	r3, r3, lsr #16
	and	r3, r3, #1
	mov	r3, r3, asl #11
	mov	r3, r3, asl #16
	mov	r3, r3, lsr #16
	orr	r3, r2, r3
	mov	r3, r3, asl #16
	mov	r2, r3, lsr #16
	ldrh	r3, [fp, #-18]
	mov	r3, r3, lsr #11
	mov	r3, r3, asl #16
	mov	r3, r3, lsr #16
	and	r3, r3, #1
	mov	r3, r3, asl #10
	mov	r3, r3, asl #16
	mov	r3, r3, lsr #16
	orr	r3, r2, r3
	mov	r3, r3, asl #16
	mov	r2, r3, lsr #16
	ldrh	r3, [fp, #-18]
	mov	r3, r3, lsr #8
	mov	r3, r3, asl #16
	mov	r3, r3, lsr #16
	and	r3, r3, #1
	mov	r3, r3, asl #9
	mov	r3, r3, asl #16
	mov	r3, r3, lsr #16
	orr	r3, r2, r3
	mov	r3, r3, asl #16
	mov	r2, r3, lsr #16
	ldrh	r3, [fp, #-18]
	mov	r3, r3, lsr #9
	mov	r3, r3, asl #16
	mov	r3, r3, lsr #16
	and	r3, r3, #1
	mov	r3, r3, asl #8
	mov	r3, r3, asl #16
	mov	r3, r3, lsr #16
	orr	r3, r2, r3
	mov	r3, r3, asl #16
	mov	r2, r3, lsr #16
	ldrh	r3, [fp, #-18]
	mov	r3, r3, lsr #6
	mov	r3, r3, asl #16
	mov	r3, r3, lsr #16
	mov	r3, r3, asl #7
	mov	r3, r3, asl #16
	mov	r3, r3, lsr #16
	and	r3, r3, #255
	mov	r3, r3, asl #16
	mov	r3, r3, lsr #16
	orr	r3, r2, r3
	mov	r3, r3, asl #16
	mov	r2, r3, lsr #16
	ldrh	r3, [fp, #-18]
	mov	r3, r3, lsr #7
	mov	r3, r3, asl #16
	mov	r3, r3, lsr #16
	and	r3, r3, #1
	mov	r3, r3, asl #6
	mov	r3, r3, asl #16
	mov	r3, r3, lsr #16
	orr	r3, r2, r3
	mov	r3, r3, asl #16
	mov	r2, r3, lsr #16
	ldrh	r3, [fp, #-18]
	mov	r3, r3, lsr #4
	mov	r3, r3, asl #16
	mov	r3, r3, lsr #16
	and	r3, r3, #1
	mov	r3, r3, asl #5
	mov	r3, r3, asl #16
	mov	r3, r3, lsr #16
	orr	r3, r2, r3
	mov	r3, r3, asl #16
	mov	r2, r3, lsr #16
	ldrh	r3, [fp, #-18]
	mov	r3, r3, lsr #5
	mov	r3, r3, asl #16
	mov	r3, r3, lsr #16
	and	r3, r3, #1
	mov	r3, r3, asl #4
	mov	r3, r3, asl #16
	mov	r3, r3, lsr #16
	orr	r3, r2, r3
	mov	r3, r3, asl #16
	mov	r2, r3, lsr #16
	ldrh	r3, [fp, #-18]
	mov	r3, r3, lsr #3
	mov	r3, r3, asl #16
	mov	r3, r3, lsr #16
	and	r3, r3, #1
	mov	r3, r3, asl #3
	mov	r3, r3, asl #16
	mov	r3, r3, lsr #16
	orr	r3, r2, r3
	mov	r3, r3, asl #16
	mov	r2, r3, lsr #16
	ldrh	r3, [fp, #-18]
	mov	r3, r3, lsr #2
	mov	r3, r3, asl #16
	mov	r3, r3, lsr #16
	and	r3, r3, #1
	mov	r3, r3, asl #2
	mov	r3, r3, asl #16
	mov	r3, r3, lsr #16
	orr	r3, r2, r3
	mov	r3, r3, asl #16
	mov	r2, r3, lsr #16
	ldrh	r3, [fp, #-18]
	mov	r3, r3, lsr #1
	mov	r3, r3, asl #16
	mov	r3, r3, lsr #16
	and	r3, r3, #1
	mov	r3, r3, asl #1
	mov	r3, r3, asl #16
	mov	r3, r3, lsr #16
	orr	r3, r2, r3
	mov	r3, r3, asl #16
	mov	r2, r3, lsr #16
	ldrh	r3, [fp, #-18]
	and	r3, r3, #1
	mov	r3, r3, asl #16
	mov	r3, r3, lsr #16
	orr	r3, r2, r3
	mov	r3, r3, asl #16
	mov	r3, r3, lsr #16
	strh	r3, [fp, #-18]	@ movhi
	ldr	r3, [fp, #-8]
	add	r3, r3, #1
	ldr	r2, [fp, #-12]
	add	r3, r2, r3
	ldrh	r2, [fp, #-18]	@ movhi
	and	r2, r2, #255
	strb	r2, [r3, #0]
	ldr	r3, [fp, #-8]
	add	r3, r3, #2
	ldr	r2, [fp, #-12]
	add	r3, r2, r3
	ldrh	r2, [fp, #-18]
	mov	r2, r2, lsr #8
	mov	r2, r2, asl #16
	mov	r2, r2, lsr #16
	and	r2, r2, #255
	strb	r2, [r3, #0]
	ldr	r3, [fp, #-8]
	add	r3, r3, #4
	str	r3, [fp, #-8]
.L139:
	ldr	r2, [fp, #-8]
	ldr	r3, .L146+16
	cmp	r2, r3
	bls	.L140
	ldr	r2, [fp, #-16]
	ldr	r3, [fp, #-12]
	mov	ip, #8388608
	mov	r0, r2
	mov	r1, r3
	mov	r3, ip
	mov	r2, r3
	bl	memcpy
	mov	r3, #0
	str	r3, [fp, #-8]
	b	.L141
.L142:
	ldr	r3, [fp, #-8]
	and	r2, r3, #240
	ldr	r3, [fp, #-8]
	and	r3, r3, #15
	mov	r3, r3, lsr #2
	and	r3, r3, #1
	mov	r1, r3, asl #3
	ldr	r3, [fp, #-8]
	and	r3, r3, #15
	mov	r3, r3, lsr #3
	and	r3, r3, #1
	mov	r3, r3, asl #2
	orr	r1, r1, r3
	ldr	r3, [fp, #-8]
	and	r3, r3, #1
	mov	r3, r3, asl #1
	orr	r1, r1, r3
	ldr	r3, [fp, #-8]
	and	r3, r3, #15
	mov	r3, r3, lsr #1
	and	r3, r3, #1
	orr	r3, r1, r3
	add	r3, r2, r3
	str	r3, [fp, #-24]
	ldr	r2, [fp, #-12]
	ldr	r3, [fp, #-8]
	mov	r3, r3, asl #16
	add	r2, r2, r3
	ldr	r1, [fp, #-16]
	ldr	r3, [fp, #-24]
	mov	r3, r3, asl #16
	add	r3, r1, r3
	mov	ip, #65536
	mov	r0, r2
	mov	r1, r3
	mov	r3, ip
	mov	r2, r3
	bl	memcpy
	ldr	r3, [fp, #-8]
	add	r3, r3, #1
	str	r3, [fp, #-8]
.L141:
	ldr	r3, [fp, #-8]
	cmp	r3, #15
	bls	.L142
	mov	r3, #1048576
	str	r3, [fp, #-8]
	b	.L143
.L144:
	ldr	r2, [fp, #-8]
	ldr	r3, .L146+20
	and	r3, r2, r3
	ldr	r2, [fp, #-8]
	and	r2, r2, #3840
	eor	r2, r2, #2560
	add	r2, r3, r2
	ldr	r3, [fp, #-8]
	and	r3, r3, #1044480
	mov	r3, r3, lsr #16
	mov	r3, r3, asl #7
	and	r1, r3, #255
	ldr	r3, [fp, #-8]
	and	r3, r3, #1044480
	mov	r3, r3, lsr #17
	and	r3, r3, #1
	mov	r3, r3, asl #6
	orr	r1, r1, r3
	ldr	r3, [fp, #-8]
	and	r3, r3, #1044480
	mov	r3, r3, lsr #18
	and	r3, r3, #1
	mov	r3, r3, asl #5
	orr	r1, r1, r3
	ldr	r3, [fp, #-8]
	and	r3, r3, #1044480
	mov	r3, r3, lsr #19
	and	r3, r3, #1
	mov	r3, r3, asl #4
	orr	r1, r1, r3
	ldr	r3, [fp, #-8]
	and	r3, r3, #1044480
	mov	r3, r3, lsr #13
	and	r3, r3, #1
	mov	r3, r3, asl #3
	orr	r1, r1, r3
	ldr	r3, [fp, #-8]
	and	r3, r3, #1044480
	mov	r3, r3, lsr #12
	and	r3, r3, #1
	mov	r3, r3, asl #2
	orr	r1, r1, r3
	ldr	r3, [fp, #-8]
	and	r3, r3, #1044480
	mov	r3, r3, lsr #15
	and	r3, r3, #1
	mov	r3, r3, asl #1
	orr	r1, r1, r3
	ldr	r3, [fp, #-8]
	and	r3, r3, #1044480
	mov	r3, r3, lsr #14
	and	r3, r3, #1
	orr	r3, r1, r3
	mov	r3, r3, asl #12
	add	r3, r2, r3
	str	r3, [fp, #-24]
	ldr	r2, [fp, #-12]
	ldr	r3, [fp, #-8]
	add	r2, r2, r3
	ldr	r1, [fp, #-16]
	ldr	r3, [fp, #-24]
	add	r3, r1, r3
	mov	ip, #256
	mov	r0, r2
	mov	r1, r3
	mov	r3, ip
	mov	r2, r3
	bl	memcpy
	ldr	r3, [fp, #-8]
	add	r3, r3, #256
	str	r3, [fp, #-8]
.L143:
	ldr	r2, [fp, #-8]
	ldr	r3, .L146+16
	cmp	r2, r3
	bls	.L144
	ldr	r2, [fp, #-16]
	ldr	r3, [fp, #-12]
	mov	ip, #8388608
	mov	r0, r2
	mov	r1, r3
	mov	r3, ip
	mov	r2, r3
	bl	memcpy
	ldr	r3, [fp, #-12]
	add	r2, r3, #1048576
	ldr	r3, [fp, #-16]
	add	r3, r3, #7340032
	mov	ip, #1048576
	mov	r0, r2
	mov	r1, r3
	mov	r3, ip
	mov	r2, r3
	bl	memcpy
	ldr	r3, [fp, #-12]
	add	r2, r3, #2097152
	ldr	r3, [fp, #-16]
	add	r3, r3, #1048576
	mov	ip, #6291456
	mov	r0, r2
	mov	r1, r3
	mov	r3, ip
	mov	r2, r3
	bl	memcpy
	ldr	r0, [fp, #-16]
	bl	free
	mov	r3, #1
	b	.L145
.L134:
	mov	r3, #0
.L145:
	mov	r0, r3
	sub	sp, fp, #4
	ldmfd	sp!, {fp, pc}
.L147:
	.align	2
.L146:
	.word	.LC3
	.word	.LC6
	.word	memory_region_cpu1
	.word	1048575
	.word	8388607
	.word	15728895
	.fnend
	.size	svc_px_decrypt, .-svc_px_decrypt
	.section	.rodata
	.align	2
.LC5:
	.byte	-76
	.byte	15
	.byte	64
	.byte	108
	.byte	56
	.byte	7
	.byte	-48
	.byte	63
	.byte	83
	.byte	8
	.byte	-128
	.byte	-86
	.byte	-66
	.byte	7
	.byte	-64
	.byte	-6
	.byte	-48
	.byte	8
	.byte	16
	.byte	-46
	.byte	-15
	.byte	3
	.byte	112
	.byte	126
	.byte	-121
	.byte	11
	.byte	64
	.byte	-10
	.byte	42
	.byte	10
	.byte	-32
	.byte	-7
	.text
	.align	2
	.global	kf2k3pcb_decrypt_68k
	.type	kf2k3pcb_decrypt_68k, %function
kf2k3pcb_decrypt_68k:
	.fnstart
	@ args = 0, pretend = 0, frame = 56
	@ frame_needed = 1, uses_anonymous_args = 0
	stmfd	sp!, {fp, lr}
	.save {fp, lr}
	.setfp fp, sp, #4
	add	fp, sp, #4
	.pad #56
	sub	sp, sp, #56
	ldr	r3, .L161
	mov	ip, #32
	sub	r2, fp, #56
	mov	r0, r2
	mov	r1, r3
	mov	r3, ip
	mov	r2, r3
	bl	memcpy
	ldr	r3, .L161+4
	ldr	r3, [r3, #0]
	str	r3, [fp, #-12]
	mov	r0, #8388608
	bl	malloc
	mov	r3, r0
	str	r3, [fp, #-16]
	ldr	r3, [fp, #-16]
	cmp	r3, #0
	beq	.L149
	mov	r3, #0
	str	r3, [fp, #-8]
	b	.L150
.L151:
	ldr	r3, [fp, #-8]
	add	r3, r3, #8388608
	ldr	r2, [fp, #-12]
	add	r2, r2, r3
	ldr	r3, [fp, #-8]
	add	r3, r3, #8388608
	ldr	r1, [fp, #-12]
	add	r3, r1, r3
	ldrb	r1, [r3, #0]	@ zero_extendqisi2
	ldr	r3, [fp, #-8]
	orr	r3, r3, #1048576
	orr	r3, r3, #2
	ldr	r0, [fp, #-12]
	add	r3, r0, r3
	ldrb	r3, [r3, #0]	@ zero_extendqisi2
	eor	r3, r1, r3
	and	r3, r3, #255
	strb	r3, [r2, #0]
	ldr	r3, [fp, #-8]
	add	r3, r3, #1
	str	r3, [fp, #-8]
.L150:
	ldr	r2, [fp, #-8]
	ldr	r3, .L161+8
	cmp	r2, r3
	bls	.L151
	mov	r3, #1048576
	str	r3, [fp, #-8]
	b	.L152
.L153:
	ldr	r2, [fp, #-12]
	ldr	r3, [fp, #-8]
	add	r3, r2, r3
	ldr	r1, [fp, #-12]
	ldr	r2, [fp, #-8]
	add	r2, r1, r2
	ldrb	r1, [r2, #0]	@ zero_extendqisi2
	ldr	r2, [fp, #-8]
	and	r2, r2, #31
	mvn	ip, #51
	sub	lr, fp, #4
	add	r0, lr, r2
	mov	r2, ip
	add	r2, r0, r2
	ldrb	r2, [r2, #0]	@ zero_extendqisi2
	eor	r2, r1, r2
	and	r2, r2, #255
	strb	r2, [r3, #0]
	ldr	r3, [fp, #-8]
	add	r3, r3, #1
	str	r3, [fp, #-8]
.L152:
	ldr	r2, [fp, #-8]
	ldr	r3, .L161+12
	cmp	r2, r3
	bls	.L153
	mov	r3, #1048576
	str	r3, [fp, #-8]
	b	.L154
.L155:
	ldr	r3, [fp, #-8]
	add	r3, r3, #1
	ldr	r2, [fp, #-12]
	add	r3, r2, r3
	ldrb	r3, [r3, #0]	@ zero_extendqisi2
	mov	r2, r3
	ldr	r3, [fp, #-8]
	add	r3, r3, #2
	ldr	r1, [fp, #-12]
	add	r3, r1, r3
	ldrb	r3, [r3, #0]	@ zero_extendqisi2
	mov	r3, r3, asl #8
	mov	r3, r3, asl #16
	mov	r3, r3, lsr #16
	orr	r3, r2, r3
	mov	r3, r3, asl #16
	mov	r3, r3, lsr #16
	strh	r3, [fp, #-18]	@ movhi
	ldrh	r3, [fp, #-18]
	mov	r3, r3, lsr #15
	mov	r3, r3, asl #16
	mov	r3, r3, lsr #16
	mov	r3, r3, asl #15
	mov	r3, r3, asl #16
	mov	r2, r3, lsr #16
	ldrh	r3, [fp, #-18]
	mov	r3, r3, lsr #14
	mov	r3, r3, asl #16
	mov	r3, r3, lsr #16
	and	r3, r3, #1
	mov	r3, r3, asl #14
	mov	r3, r3, asl #16
	mov	r3, r3, lsr #16
	orr	r3, r2, r3
	mov	r3, r3, asl #16
	mov	r2, r3, lsr #16
	ldrh	r3, [fp, #-18]
	mov	r3, r3, lsr #13
	mov	r3, r3, asl #16
	mov	r3, r3, lsr #16
	and	r3, r3, #1
	mov	r3, r3, asl #13
	mov	r3, r3, asl #16
	mov	r3, r3, lsr #16
	orr	r3, r2, r3
	mov	r3, r3, asl #16
	mov	r2, r3, lsr #16
	ldrh	r3, [fp, #-18]
	mov	r3, r3, lsr #12
	mov	r3, r3, asl #16
	mov	r3, r3, lsr #16
	and	r3, r3, #1
	mov	r3, r3, asl #12
	mov	r3, r3, asl #16
	mov	r3, r3, lsr #16
	orr	r3, r2, r3
	mov	r3, r3, asl #16
	mov	r2, r3, lsr #16
	ldrh	r3, [fp, #-18]
	mov	r3, r3, lsr #4
	mov	r3, r3, asl #16
	mov	r3, r3, lsr #16
	and	r3, r3, #1
	mov	r3, r3, asl #11
	mov	r3, r3, asl #16
	mov	r3, r3, lsr #16
	orr	r3, r2, r3
	mov	r3, r3, asl #16
	mov	r2, r3, lsr #16
	ldrh	r3, [fp, #-18]
	mov	r3, r3, lsr #5
	mov	r3, r3, asl #16
	mov	r3, r3, lsr #16
	and	r3, r3, #1
	mov	r3, r3, asl #10
	mov	r3, r3, asl #16
	mov	r3, r3, lsr #16
	orr	r3, r2, r3
	mov	r3, r3, asl #16
	mov	r2, r3, lsr #16
	ldrh	r3, [fp, #-18]
	mov	r3, r3, lsr #6
	mov	r3, r3, asl #16
	mov	r3, r3, lsr #16
	and	r3, r3, #1
	mov	r3, r3, asl #9
	mov	r3, r3, asl #16
	mov	r3, r3, lsr #16
	orr	r3, r2, r3
	mov	r3, r3, asl #16
	mov	r2, r3, lsr #16
	ldrh	r3, [fp, #-18]
	mov	r3, r3, lsr #7
	mov	r3, r3, asl #16
	mov	r3, r3, lsr #16
	and	r3, r3, #1
	mov	r3, r3, asl #8
	mov	r3, r3, asl #16
	mov	r3, r3, lsr #16
	orr	r3, r2, r3
	mov	r3, r3, asl #16
	mov	r2, r3, lsr #16
	ldrh	r3, [fp, #-18]
	mov	r3, r3, lsr #8
	mov	r3, r3, asl #16
	mov	r3, r3, lsr #16
	mov	r3, r3, asl #7
	mov	r3, r3, asl #16
	mov	r3, r3, lsr #16
	and	r3, r3, #255
	mov	r3, r3, asl #16
	mov	r3, r3, lsr #16
	orr	r3, r2, r3
	mov	r3, r3, asl #16
	mov	r2, r3, lsr #16
	ldrh	r3, [fp, #-18]
	mov	r3, r3, lsr #9
	mov	r3, r3, asl #16
	mov	r3, r3, lsr #16
	and	r3, r3, #1
	mov	r3, r3, asl #6
	mov	r3, r3, asl #16
	mov	r3, r3, lsr #16
	orr	r3, r2, r3
	mov	r3, r3, asl #16
	mov	r2, r3, lsr #16
	ldrh	r3, [fp, #-18]
	mov	r3, r3, lsr #10
	mov	r3, r3, asl #16
	mov	r3, r3, lsr #16
	and	r3, r3, #1
	mov	r3, r3, asl #5
	mov	r3, r3, asl #16
	mov	r3, r3, lsr #16
	orr	r3, r2, r3
	mov	r3, r3, asl #16
	mov	r2, r3, lsr #16
	ldrh	r3, [fp, #-18]
	mov	r3, r3, lsr #11
	mov	r3, r3, asl #16
	mov	r3, r3, lsr #16
	and	r3, r3, #1
	mov	r3, r3, asl #4
	mov	r3, r3, asl #16
	mov	r3, r3, lsr #16
	orr	r3, r2, r3
	mov	r3, r3, asl #16
	mov	r2, r3, lsr #16
	ldrh	r3, [fp, #-18]
	mov	r3, r3, lsr #3
	mov	r3, r3, asl #16
	mov	r3, r3, lsr #16
	and	r3, r3, #1
	mov	r3, r3, asl #3
	mov	r3, r3, asl #16
	mov	r3, r3, lsr #16
	orr	r3, r2, r3
	mov	r3, r3, asl #16
	mov	r2, r3, lsr #16
	ldrh	r3, [fp, #-18]
	mov	r3, r3, lsr #2
	mov	r3, r3, asl #16
	mov	r3, r3, lsr #16
	and	r3, r3, #1
	mov	r3, r3, asl #2
	mov	r3, r3, asl #16
	mov	r3, r3, lsr #16
	orr	r3, r2, r3
	mov	r3, r3, asl #16
	mov	r2, r3, lsr #16
	ldrh	r3, [fp, #-18]
	mov	r3, r3, lsr #1
	mov	r3, r3, asl #16
	mov	r3, r3, lsr #16
	and	r3, r3, #1
	mov	r3, r3, asl #1
	mov	r3, r3, asl #16
	mov	r3, r3, lsr #16
	orr	r3, r2, r3
	mov	r3, r3, asl #16
	mov	r2, r3, lsr #16
	ldrh	r3, [fp, #-18]
	and	r3, r3, #1
	mov	r3, r3, asl #16
	mov	r3, r3, lsr #16
	orr	r3, r2, r3
	mov	r3, r3, asl #16
	mov	r3, r3, lsr #16
	strh	r3, [fp, #-18]	@ movhi
	ldr	r3, [fp, #-8]
	add	r3, r3, #1
	ldr	r2, [fp, #-12]
	add	r3, r2, r3
	ldrh	r2, [fp, #-18]	@ movhi
	and	r2, r2, #255
	strb	r2, [r3, #0]
	ldr	r3, [fp, #-8]
	add	r3, r3, #2
	ldr	r2, [fp, #-12]
	add	r3, r2, r3
	ldrh	r2, [fp, #-18]
	mov	r2, r2, lsr #8
	mov	r2, r2, asl #16
	mov	r2, r2, lsr #16
	and	r2, r2, #255
	strb	r2, [r3, #0]
	ldr	r3, [fp, #-8]
	add	r3, r3, #4
	str	r3, [fp, #-8]
.L154:
	ldr	r2, [fp, #-8]
	ldr	r3, .L161+12
	cmp	r2, r3
	bls	.L155
	mov	r3, #0
	str	r3, [fp, #-8]
	b	.L156
.L157:
	ldr	r3, [fp, #-8]
	and	r2, r3, #240
	ldr	r3, [fp, #-8]
	and	r3, r3, #15
	mov	r3, r3, lsr #1
	and	r3, r3, #1
	mov	r1, r3, asl #3
	ldr	r3, [fp, #-8]
	and	r3, r3, #1
	mov	r3, r3, asl #2
	orr	r1, r1, r3
	ldr	r3, [fp, #-8]
	and	r3, r3, #15
	mov	r3, r3, lsr #3
	and	r3, r3, #1
	mov	r3, r3, asl #1
	orr	r1, r1, r3
	ldr	r3, [fp, #-8]
	and	r3, r3, #15
	mov	r3, r3, lsr #2
	and	r3, r3, #1
	orr	r3, r1, r3
	add	r3, r2, r3
	str	r3, [fp, #-24]
	ldr	r2, [fp, #-16]
	ldr	r3, [fp, #-8]
	mov	r3, r3, asl #16
	add	r2, r2, r3
	ldr	r1, [fp, #-12]
	ldr	r3, [fp, #-24]
	mov	r3, r3, asl #16
	add	r3, r1, r3
	mov	ip, #65536
	mov	r0, r2
	mov	r1, r3
	mov	r3, ip
	mov	r2, r3
	bl	memcpy
	ldr	r3, [fp, #-8]
	add	r3, r3, #1
	str	r3, [fp, #-8]
.L156:
	ldr	r3, [fp, #-8]
	cmp	r3, #15
	bls	.L157
	ldr	r2, [fp, #-12]
	ldr	r3, [fp, #-16]
	mov	ip, #1048576
	mov	r0, r2
	mov	r1, r3
	mov	r3, ip
	mov	r2, r3
	bl	memcpy
	mov	r3, #1048576
	str	r3, [fp, #-8]
	b	.L158
.L159:
	ldr	r2, [fp, #-8]
	ldr	r3, .L161+16
	and	r3, r2, r3
	ldr	r2, [fp, #-8]
	and	r2, r2, #3840
	eor	r2, r2, #768
	add	r2, r3, r2
	ldr	r3, [fp, #-8]
	and	r3, r3, #1044480
	mov	r3, r3, lsr #16
	mov	r3, r3, asl #7
	and	r1, r3, #255
	ldr	r3, [fp, #-8]
	and	r3, r3, #1044480
	mov	r3, r3, lsr #17
	and	r3, r3, #1
	mov	r3, r3, asl #6
	orr	r1, r1, r3
	ldr	r3, [fp, #-8]
	and	r3, r3, #1044480
	mov	r3, r3, lsr #18
	and	r3, r3, #1
	mov	r3, r3, asl #5
	orr	r1, r1, r3
	ldr	r3, [fp, #-8]
	and	r3, r3, #1044480
	mov	r3, r3, lsr #19
	and	r3, r3, #1
	mov	r3, r3, asl #4
	orr	r1, r1, r3
	ldr	r3, [fp, #-8]
	and	r3, r3, #1044480
	mov	r3, r3, lsr #13
	and	r3, r3, #1
	mov	r3, r3, asl #3
	orr	r1, r1, r3
	ldr	r3, [fp, #-8]
	and	r3, r3, #1044480
	mov	r3, r3, lsr #12
	and	r3, r3, #1
	mov	r3, r3, asl #2
	orr	r1, r1, r3
	ldr	r3, [fp, #-8]
	and	r3, r3, #1044480
	mov	r3, r3, lsr #15
	and	r3, r3, #1
	mov	r3, r3, asl #1
	orr	r1, r1, r3
	ldr	r3, [fp, #-8]
	and	r3, r3, #1044480
	mov	r3, r3, lsr #14
	and	r3, r3, #1
	orr	r3, r1, r3
	mov	r3, r3, asl #12
	add	r3, r2, r3
	str	r3, [fp, #-24]
	ldr	r3, [fp, #-8]
	sub	r3, r3, #1048576
	ldr	r2, [fp, #-16]
	add	r3, r2, r3
	mov	r2, r3
	ldr	r1, [fp, #-12]
	ldr	r3, [fp, #-24]
	add	r3, r1, r3
	mov	ip, #256
	mov	r0, r2
	mov	r1, r3
	mov	r3, ip
	mov	r2, r3
	bl	memcpy
	ldr	r3, [fp, #-8]
	add	r3, r3, #256
	str	r3, [fp, #-8]
.L158:
	ldr	r2, [fp, #-8]
	ldr	r3, .L161+20
	cmp	r2, r3
	bls	.L159
	ldr	r3, [fp, #-12]
	add	r2, r3, #1048576
	ldr	r3, [fp, #-16]
	add	r3, r3, #7340032
	mov	ip, #1048576
	mov	r0, r2
	mov	r1, r3
	mov	r3, ip
	mov	r2, r3
	bl	memcpy
	ldr	r3, [fp, #-12]
	add	r2, r3, #2097152
	ldr	r3, [fp, #-16]
	mov	ip, #7340032
	mov	r0, r2
	mov	r1, r3
	mov	r3, ip
	mov	r2, r3
	bl	memcpy
	ldr	r0, [fp, #-16]
	bl	free
	mov	r3, #1
	b	.L160
.L149:
	mov	r3, #0
.L160:
	mov	r0, r3
	sub	sp, fp, #4
	ldmfd	sp!, {fp, pc}
.L162:
	.align	2
.L161:
	.word	.LC5
	.word	memory_region_cpu1
	.word	1048575
	.word	8388607
	.word	15728895
	.word	9437183
	.fnend
	.size	kf2k3pcb_decrypt_68k, .-kf2k3pcb_decrypt_68k
	.section	.rodata
	.align	2
.LC4:
	.byte	47
	.byte	2
	.byte	96
	.byte	-69
	.byte	119
	.byte	1
	.byte	48
	.byte	8
	.byte	-40
	.byte	1
	.byte	-96
	.byte	-33
	.byte	55
	.byte	10
	.byte	-16
	.byte	101
	.byte	40
	.byte	3
	.byte	-48
	.byte	35
	.byte	-45
	.byte	3
	.byte	112
	.byte	66
	.byte	-69
	.byte	6
	.byte	-16
	.byte	40
	.byte	-70
	.byte	15
	.byte	-16
	.byte	122
	.text
	.align	2
	.global	kof2003_decrypt_68k
	.type	kof2003_decrypt_68k, %function
kof2003_decrypt_68k:
	.fnstart
	@ args = 0, pretend = 0, frame = 88
	@ frame_needed = 1, uses_anonymous_args = 0
	stmfd	sp!, {fp, lr}
	.save {fp, lr}
	.setfp fp, sp, #4
	add	fp, sp, #4
	.pad #88
	sub	sp, sp, #88
	ldr	r3, .L178
	mov	ip, #32
	sub	r2, fp, #56
	mov	r0, r2
	mov	r1, r3
	mov	r3, ip
	mov	r2, r3
	bl	memcpy
	ldr	r3, .L178+4
	mov	ip, #32
	sub	r2, fp, #88
	mov	r0, r2
	mov	r1, r3
	mov	r3, ip
	mov	r2, r3
	bl	memcpy
	ldr	r3, .L178+8
	ldr	r3, [r3, #0]
	str	r3, [fp, #-12]
	mov	r0, #8388608
	bl	malloc
	mov	r3, r0
	str	r3, [fp, #-16]
	ldr	r3, [fp, #-16]
	cmp	r3, #0
	beq	.L164
	mov	r3, #0
	str	r3, [fp, #-8]
	b	.L165
.L166:
	ldr	r3, [fp, #-8]
	add	r3, r3, #8388608
	ldr	r2, [fp, #-12]
	add	r2, r2, r3
	ldr	r3, [fp, #-8]
	add	r3, r3, #8388608
	ldr	r1, [fp, #-12]
	add	r3, r1, r3
	ldrb	r1, [r3, #0]	@ zero_extendqisi2
	ldr	r3, [fp, #-8]
	orr	r3, r3, #1048576
	orr	r3, r3, #2
	ldr	r0, [fp, #-12]
	add	r3, r0, r3
	ldrb	r3, [r3, #0]	@ zero_extendqisi2
	eor	r3, r1, r3
	and	r3, r3, #255
	strb	r3, [r2, #0]
	ldr	r3, [fp, #-8]
	add	r3, r3, #1
	str	r3, [fp, #-8]
.L165:
	ldr	r2, [fp, #-8]
	ldr	r3, .L178+12
	cmp	r2, r3
	bls	.L166
	mov	r3, #0
	str	r3, [fp, #-8]
	b	.L167
.L168:
	ldr	r2, [fp, #-12]
	ldr	r3, [fp, #-8]
	add	r3, r2, r3
	ldr	r1, [fp, #-12]
	ldr	r2, [fp, #-8]
	add	r2, r1, r2
	ldrb	r1, [r2, #0]	@ zero_extendqisi2
	ldr	r2, [fp, #-8]
	and	r2, r2, #31
	mvn	ip, #51
	sub	lr, fp, #4
	add	r0, lr, r2
	mov	r2, ip
	add	r2, r0, r2
	ldrb	r2, [r2, #0]	@ zero_extendqisi2
	eor	r2, r1, r2
	and	r2, r2, #255
	strb	r2, [r3, #0]
	ldr	r3, [fp, #-8]
	add	r3, r3, #1
	str	r3, [fp, #-8]
.L167:
	ldr	r2, [fp, #-8]
	ldr	r3, .L178+12
	cmp	r2, r3
	bls	.L168
	mov	r3, #1048576
	str	r3, [fp, #-8]
	b	.L169
.L170:
	ldr	r2, [fp, #-12]
	ldr	r3, [fp, #-8]
	add	r3, r2, r3
	ldr	r1, [fp, #-12]
	ldr	r2, [fp, #-8]
	add	r2, r1, r2
	ldrb	r1, [r2, #0]	@ zero_extendqisi2
	ldr	r2, [fp, #-8]
	and	r2, r2, #31
	mvn	ip, #83
	sub	lr, fp, #4
	add	r0, lr, r2
	mov	r2, ip
	add	r2, r0, r2
	ldrb	r2, [r2, #0]	@ zero_extendqisi2
	eor	r2, r1, r2
	and	r2, r2, #255
	strb	r2, [r3, #0]
	ldr	r3, [fp, #-8]
	add	r3, r3, #1
	str	r3, [fp, #-8]
.L169:
	ldr	r2, [fp, #-8]
	ldr	r3, .L178+16
	cmp	r2, r3
	bls	.L170
	mov	r3, #1048576
	str	r3, [fp, #-8]
	b	.L171
.L172:
	ldr	r3, [fp, #-8]
	add	r3, r3, #1
	ldr	r2, [fp, #-12]
	add	r3, r2, r3
	ldrb	r3, [r3, #0]	@ zero_extendqisi2
	mov	r2, r3
	ldr	r3, [fp, #-8]
	add	r3, r3, #2
	ldr	r1, [fp, #-12]
	add	r3, r1, r3
	ldrb	r3, [r3, #0]	@ zero_extendqisi2
	mov	r3, r3, asl #8
	mov	r3, r3, asl #16
	mov	r3, r3, lsr #16
	orr	r3, r2, r3
	mov	r3, r3, asl #16
	mov	r3, r3, lsr #16
	strh	r3, [fp, #-18]	@ movhi
	ldrh	r3, [fp, #-18]
	mov	r3, r3, lsr #15
	mov	r3, r3, asl #16
	mov	r3, r3, lsr #16
	mov	r3, r3, asl #15
	mov	r3, r3, asl #16
	mov	r2, r3, lsr #16
	ldrh	r3, [fp, #-18]
	mov	r3, r3, lsr #14
	mov	r3, r3, asl #16
	mov	r3, r3, lsr #16
	and	r3, r3, #1
	mov	r3, r3, asl #14
	mov	r3, r3, asl #16
	mov	r3, r3, lsr #16
	orr	r3, r2, r3
	mov	r3, r3, asl #16
	mov	r2, r3, lsr #16
	ldrh	r3, [fp, #-18]
	mov	r3, r3, lsr #13
	mov	r3, r3, asl #16
	mov	r3, r3, lsr #16
	and	r3, r3, #1
	mov	r3, r3, asl #13
	mov	r3, r3, asl #16
	mov	r3, r3, lsr #16
	orr	r3, r2, r3
	mov	r3, r3, asl #16
	mov	r2, r3, lsr #16
	ldrh	r3, [fp, #-18]
	mov	r3, r3, lsr #12
	mov	r3, r3, asl #16
	mov	r3, r3, lsr #16
	and	r3, r3, #1
	mov	r3, r3, asl #12
	mov	r3, r3, asl #16
	mov	r3, r3, lsr #16
	orr	r3, r2, r3
	mov	r3, r3, asl #16
	mov	r2, r3, lsr #16
	ldrh	r3, [fp, #-18]
	mov	r3, r3, lsr #5
	mov	r3, r3, asl #16
	mov	r3, r3, lsr #16
	and	r3, r3, #1
	mov	r3, r3, asl #11
	mov	r3, r3, asl #16
	mov	r3, r3, lsr #16
	orr	r3, r2, r3
	mov	r3, r3, asl #16
	mov	r2, r3, lsr #16
	ldrh	r3, [fp, #-18]
	mov	r3, r3, lsr #4
	mov	r3, r3, asl #16
	mov	r3, r3, lsr #16
	and	r3, r3, #1
	mov	r3, r3, asl #10
	mov	r3, r3, asl #16
	mov	r3, r3, lsr #16
	orr	r3, r2, r3
	mov	r3, r3, asl #16
	mov	r2, r3, lsr #16
	ldrh	r3, [fp, #-18]
	mov	r3, r3, lsr #7
	mov	r3, r3, asl #16
	mov	r3, r3, lsr #16
	and	r3, r3, #1
	mov	r3, r3, asl #9
	mov	r3, r3, asl #16
	mov	r3, r3, lsr #16
	orr	r3, r2, r3
	mov	r3, r3, asl #16
	mov	r2, r3, lsr #16
	ldrh	r3, [fp, #-18]
	mov	r3, r3, lsr #6
	mov	r3, r3, asl #16
	mov	r3, r3, lsr #16
	and	r3, r3, #1
	mov	r3, r3, asl #8
	mov	r3, r3, asl #16
	mov	r3, r3, lsr #16
	orr	r3, r2, r3
	mov	r3, r3, asl #16
	mov	r2, r3, lsr #16
	ldrh	r3, [fp, #-18]
	mov	r3, r3, lsr #9
	mov	r3, r3, asl #16
	mov	r3, r3, lsr #16
	mov	r3, r3, asl #7
	mov	r3, r3, asl #16
	mov	r3, r3, lsr #16
	and	r3, r3, #255
	mov	r3, r3, asl #16
	mov	r3, r3, lsr #16
	orr	r3, r2, r3
	mov	r3, r3, asl #16
	mov	r2, r3, lsr #16
	ldrh	r3, [fp, #-18]
	mov	r3, r3, lsr #8
	mov	r3, r3, asl #16
	mov	r3, r3, lsr #16
	and	r3, r3, #1
	mov	r3, r3, asl #6
	mov	r3, r3, asl #16
	mov	r3, r3, lsr #16
	orr	r3, r2, r3
	mov	r3, r3, asl #16
	mov	r2, r3, lsr #16
	ldrh	r3, [fp, #-18]
	mov	r3, r3, lsr #11
	mov	r3, r3, asl #16
	mov	r3, r3, lsr #16
	and	r3, r3, #1
	mov	r3, r3, asl #5
	mov	r3, r3, asl #16
	mov	r3, r3, lsr #16
	orr	r3, r2, r3
	mov	r3, r3, asl #16
	mov	r2, r3, lsr #16
	ldrh	r3, [fp, #-18]
	mov	r3, r3, lsr #10
	mov	r3, r3, asl #16
	mov	r3, r3, lsr #16
	and	r3, r3, #1
	mov	r3, r3, asl #4
	mov	r3, r3, asl #16
	mov	r3, r3, lsr #16
	orr	r3, r2, r3
	mov	r3, r3, asl #16
	mov	r2, r3, lsr #16
	ldrh	r3, [fp, #-18]
	mov	r3, r3, lsr #3
	mov	r3, r3, asl #16
	mov	r3, r3, lsr #16
	and	r3, r3, #1
	mov	r3, r3, asl #3
	mov	r3, r3, asl #16
	mov	r3, r3, lsr #16
	orr	r3, r2, r3
	mov	r3, r3, asl #16
	mov	r2, r3, lsr #16
	ldrh	r3, [fp, #-18]
	mov	r3, r3, lsr #2
	mov	r3, r3, asl #16
	mov	r3, r3, lsr #16
	and	r3, r3, #1
	mov	r3, r3, asl #2
	mov	r3, r3, asl #16
	mov	r3, r3, lsr #16
	orr	r3, r2, r3
	mov	r3, r3, asl #16
	mov	r2, r3, lsr #16
	ldrh	r3, [fp, #-18]
	mov	r3, r3, lsr #1
	mov	r3, r3, asl #16
	mov	r3, r3, lsr #16
	and	r3, r3, #1
	mov	r3, r3, asl #1
	mov	r3, r3, asl #16
	mov	r3, r3, lsr #16
	orr	r3, r2, r3
	mov	r3, r3, asl #16
	mov	r2, r3, lsr #16
	ldrh	r3, [fp, #-18]
	and	r3, r3, #1
	mov	r3, r3, asl #16
	mov	r3, r3, lsr #16
	orr	r3, r2, r3
	mov	r3, r3, asl #16
	mov	r3, r3, lsr #16
	strh	r3, [fp, #-18]	@ movhi
	ldr	r3, [fp, #-8]
	add	r3, r3, #1
	ldr	r2, [fp, #-12]
	add	r3, r2, r3
	ldrh	r2, [fp, #-18]	@ movhi
	and	r2, r2, #255
	strb	r2, [r3, #0]
	ldr	r3, [fp, #-8]
	add	r3, r3, #2
	ldr	r2, [fp, #-12]
	add	r3, r2, r3
	ldrh	r2, [fp, #-18]
	mov	r2, r2, lsr #8
	mov	r2, r2, asl #16
	mov	r2, r2, lsr #16
	and	r2, r2, #255
	strb	r2, [r3, #0]
	ldr	r3, [fp, #-8]
	add	r3, r3, #4
	str	r3, [fp, #-8]
.L171:
	ldr	r2, [fp, #-8]
	ldr	r3, .L178+16
	cmp	r2, r3
	bls	.L172
	mov	r3, #0
	str	r3, [fp, #-8]
	b	.L173
.L174:
	ldr	r3, [fp, #-8]
	and	r2, r3, #240
	ldr	r3, [fp, #-8]
	and	r3, r3, #1
	mov	r1, r3, asl #3
	ldr	r3, [fp, #-8]
	and	r3, r3, #15
	mov	r3, r3, lsr #1
	and	r3, r3, #1
	mov	r3, r3, asl #2
	orr	r1, r1, r3
	ldr	r3, [fp, #-8]
	and	r3, r3, #15
	mov	r3, r3, lsr #2
	and	r3, r3, #1
	mov	r3, r3, asl #1
	orr	r1, r1, r3
	ldr	r3, [fp, #-8]
	and	r3, r3, #15
	mov	r3, r3, lsr #3
	and	r3, r3, #1
	orr	r3, r1, r3
	add	r3, r2, r3
	str	r3, [fp, #-24]
	ldr	r2, [fp, #-16]
	ldr	r3, [fp, #-8]
	mov	r3, r3, asl #16
	add	r2, r2, r3
	ldr	r1, [fp, #-12]
	ldr	r3, [fp, #-24]
	mov	r3, r3, asl #16
	add	r3, r1, r3
	mov	ip, #65536
	mov	r0, r2
	mov	r1, r3
	mov	r3, ip
	mov	r2, r3
	bl	memcpy
	ldr	r3, [fp, #-8]
	add	r3, r3, #1
	str	r3, [fp, #-8]
.L173:
	ldr	r3, [fp, #-8]
	cmp	r3, #15
	bls	.L174
	ldr	r2, [fp, #-12]
	ldr	r3, [fp, #-16]
	mov	ip, #1048576
	mov	r0, r2
	mov	r1, r3
	mov	r3, ip
	mov	r2, r3
	bl	memcpy
	mov	r3, #1048576
	str	r3, [fp, #-8]
	b	.L175
.L176:
	ldr	r2, [fp, #-8]
	ldr	r3, .L178+20
	and	r3, r2, r3
	ldr	r2, [fp, #-8]
	and	r2, r2, #3840
	eor	r2, r2, #2048
	add	r2, r3, r2
	ldr	r3, [fp, #-8]
	and	r3, r3, #1044480
	mov	r3, r3, lsr #16
	mov	r3, r3, asl #7
	and	r1, r3, #255
	ldr	r3, [fp, #-8]
	and	r3, r3, #1044480
	mov	r3, r3, lsr #17
	and	r3, r3, #1
	mov	r3, r3, asl #6
	orr	r1, r1, r3
	ldr	r3, [fp, #-8]
	and	r3, r3, #1044480
	mov	r3, r3, lsr #18
	and	r3, r3, #1
	mov	r3, r3, asl #5
	orr	r1, r1, r3
	ldr	r3, [fp, #-8]
	and	r3, r3, #1044480
	mov	r3, r3, lsr #19
	and	r3, r3, #1
	mov	r3, r3, asl #4
	orr	r1, r1, r3
	ldr	r3, [fp, #-8]
	and	r3, r3, #1044480
	mov	r3, r3, lsr #13
	and	r3, r3, #1
	mov	r3, r3, asl #3
	orr	r1, r1, r3
	ldr	r3, [fp, #-8]
	and	r3, r3, #1044480
	mov	r3, r3, lsr #12
	and	r3, r3, #1
	mov	r3, r3, asl #2
	orr	r1, r1, r3
	ldr	r3, [fp, #-8]
	and	r3, r3, #1044480
	mov	r3, r3, lsr #15
	and	r3, r3, #1
	mov	r3, r3, asl #1
	orr	r1, r1, r3
	ldr	r3, [fp, #-8]
	and	r3, r3, #1044480
	mov	r3, r3, lsr #14
	and	r3, r3, #1
	orr	r3, r1, r3
	mov	r3, r3, asl #12
	add	r3, r2, r3
	str	r3, [fp, #-24]
	ldr	r3, [fp, #-8]
	sub	r3, r3, #1048576
	ldr	r2, [fp, #-16]
	add	r3, r2, r3
	mov	r2, r3
	ldr	r1, [fp, #-12]
	ldr	r3, [fp, #-24]
	add	r3, r1, r3
	mov	ip, #256
	mov	r0, r2
	mov	r1, r3
	mov	r3, ip
	mov	r2, r3
	bl	memcpy
	ldr	r3, [fp, #-8]
	add	r3, r3, #256
	str	r3, [fp, #-8]
.L175:
	ldr	r2, [fp, #-8]
	ldr	r3, .L178+24
	cmp	r2, r3
	bls	.L176
	ldr	r3, [fp, #-12]
	add	r2, r3, #1048576
	ldr	r3, [fp, #-16]
	add	r3, r3, #7340032
	mov	ip, #1048576
	mov	r0, r2
	mov	r1, r3
	mov	r3, ip
	mov	r2, r3
	bl	memcpy
	ldr	r3, [fp, #-12]
	add	r2, r3, #2097152
	ldr	r3, [fp, #-16]
	mov	ip, #7340032
	mov	r0, r2
	mov	r1, r3
	mov	r3, ip
	mov	r2, r3
	bl	memcpy
	ldr	r0, [fp, #-16]
	bl	free
	mov	r3, #1
	b	.L177
.L164:
	mov	r3, #0
.L177:
	mov	r0, r3
	sub	sp, fp, #4
	ldmfd	sp!, {fp, pc}
.L179:
	.align	2
.L178:
	.word	.LC3
	.word	.LC4
	.word	memory_region_cpu1
	.word	1048575
	.word	8388607
	.word	15728895
	.word	9437183
	.fnend
	.size	kof2003_decrypt_68k, .-kof2003_decrypt_68k
	.section	.rodata
	.align	2
.LC2:
	.byte	43
	.byte	9
	.byte	-48
	.byte	127
	.byte	81
	.byte	11
	.byte	16
	.byte	76
	.byte	91
	.byte	7
	.byte	112
	.byte	-99
	.byte	62
	.byte	11
	.byte	-80
	.byte	-74
	.byte	84
	.byte	9
	.byte	-32
	.byte	-52
	.byte	61
	.byte	13
	.byte	-128
	.byte	-103
	.byte	-121
	.byte	3
	.byte	-112
	.byte	-126
	.byte	-2
	.byte	4
	.byte	32
	.byte	24
	.text
	.align	2
	.global	kof2003h_decrypt_68k
	.type	kof2003h_decrypt_68k, %function
kof2003h_decrypt_68k:
	.fnstart
	@ args = 0, pretend = 0, frame = 88
	@ frame_needed = 1, uses_anonymous_args = 0
	stmfd	sp!, {fp, lr}
	.save {fp, lr}
	.setfp fp, sp, #4
	add	fp, sp, #4
	.pad #88
	sub	sp, sp, #88
	ldr	r3, .L195
	mov	ip, #32
	sub	r2, fp, #56
	mov	r0, r2
	mov	r1, r3
	mov	r3, ip
	mov	r2, r3
	bl	memcpy
	ldr	r3, .L195+4
	mov	ip, #32
	sub	r2, fp, #88
	mov	r0, r2
	mov	r1, r3
	mov	r3, ip
	mov	r2, r3
	bl	memcpy
	ldr	r3, .L195+8
	ldr	r3, [r3, #0]
	str	r3, [fp, #-12]
	mov	r0, #8388608
	bl	malloc
	mov	r3, r0
	str	r3, [fp, #-16]
	ldr	r3, [fp, #-16]
	cmp	r3, #0
	beq	.L181
	mov	r3, #0
	str	r3, [fp, #-8]
	b	.L182
.L183:
	ldr	r3, [fp, #-8]
	add	r3, r3, #8388608
	ldr	r2, [fp, #-12]
	add	r2, r2, r3
	ldr	r3, [fp, #-8]
	add	r3, r3, #8388608
	ldr	r1, [fp, #-12]
	add	r3, r1, r3
	ldrb	r1, [r3, #0]	@ zero_extendqisi2
	ldr	r3, [fp, #-8]
	orr	r3, r3, #1048576
	orr	r3, r3, #2
	ldr	r0, [fp, #-12]
	add	r3, r0, r3
	ldrb	r3, [r3, #0]	@ zero_extendqisi2
	eor	r3, r1, r3
	and	r3, r3, #255
	strb	r3, [r2, #0]
	ldr	r3, [fp, #-8]
	add	r3, r3, #1
	str	r3, [fp, #-8]
.L182:
	ldr	r2, [fp, #-8]
	ldr	r3, .L195+12
	cmp	r2, r3
	bls	.L183
	mov	r3, #0
	str	r3, [fp, #-8]
	b	.L184
.L185:
	ldr	r2, [fp, #-12]
	ldr	r3, [fp, #-8]
	add	r3, r2, r3
	ldr	r1, [fp, #-12]
	ldr	r2, [fp, #-8]
	add	r2, r1, r2
	ldrb	r1, [r2, #0]	@ zero_extendqisi2
	ldr	r2, [fp, #-8]
	and	r2, r2, #31
	mvn	ip, #51
	sub	lr, fp, #4
	add	r0, lr, r2
	mov	r2, ip
	add	r2, r0, r2
	ldrb	r2, [r2, #0]	@ zero_extendqisi2
	eor	r2, r1, r2
	and	r2, r2, #255
	strb	r2, [r3, #0]
	ldr	r3, [fp, #-8]
	add	r3, r3, #1
	str	r3, [fp, #-8]
.L184:
	ldr	r2, [fp, #-8]
	ldr	r3, .L195+12
	cmp	r2, r3
	bls	.L185
	mov	r3, #1048576
	str	r3, [fp, #-8]
	b	.L186
.L187:
	ldr	r2, [fp, #-12]
	ldr	r3, [fp, #-8]
	add	r3, r2, r3
	ldr	r1, [fp, #-12]
	ldr	r2, [fp, #-8]
	add	r2, r1, r2
	ldrb	r1, [r2, #0]	@ zero_extendqisi2
	ldr	r2, [fp, #-8]
	and	r2, r2, #31
	mvn	ip, #83
	sub	lr, fp, #4
	add	r0, lr, r2
	mov	r2, ip
	add	r2, r0, r2
	ldrb	r2, [r2, #0]	@ zero_extendqisi2
	eor	r2, r1, r2
	and	r2, r2, #255
	strb	r2, [r3, #0]
	ldr	r3, [fp, #-8]
	add	r3, r3, #1
	str	r3, [fp, #-8]
.L186:
	ldr	r2, [fp, #-8]
	ldr	r3, .L195+16
	cmp	r2, r3
	bls	.L187
	mov	r3, #1048576
	str	r3, [fp, #-8]
	b	.L188
.L189:
	ldr	r3, [fp, #-8]
	add	r3, r3, #1
	ldr	r2, [fp, #-12]
	add	r3, r2, r3
	ldrb	r3, [r3, #0]	@ zero_extendqisi2
	mov	r2, r3
	ldr	r3, [fp, #-8]
	add	r3, r3, #2
	ldr	r1, [fp, #-12]
	add	r3, r1, r3
	ldrb	r3, [r3, #0]	@ zero_extendqisi2
	mov	r3, r3, asl #8
	mov	r3, r3, asl #16
	mov	r3, r3, lsr #16
	orr	r3, r2, r3
	mov	r3, r3, asl #16
	mov	r3, r3, lsr #16
	strh	r3, [fp, #-18]	@ movhi
	ldrh	r3, [fp, #-18]
	mov	r3, r3, lsr #15
	mov	r3, r3, asl #16
	mov	r3, r3, lsr #16
	mov	r3, r3, asl #15
	mov	r3, r3, asl #16
	mov	r2, r3, lsr #16
	ldrh	r3, [fp, #-18]
	mov	r3, r3, lsr #14
	mov	r3, r3, asl #16
	mov	r3, r3, lsr #16
	and	r3, r3, #1
	mov	r3, r3, asl #14
	mov	r3, r3, asl #16
	mov	r3, r3, lsr #16
	orr	r3, r2, r3
	mov	r3, r3, asl #16
	mov	r2, r3, lsr #16
	ldrh	r3, [fp, #-18]
	mov	r3, r3, lsr #13
	mov	r3, r3, asl #16
	mov	r3, r3, lsr #16
	and	r3, r3, #1
	mov	r3, r3, asl #13
	mov	r3, r3, asl #16
	mov	r3, r3, lsr #16
	orr	r3, r2, r3
	mov	r3, r3, asl #16
	mov	r2, r3, lsr #16
	ldrh	r3, [fp, #-18]
	mov	r3, r3, lsr #12
	mov	r3, r3, asl #16
	mov	r3, r3, lsr #16
	and	r3, r3, #1
	mov	r3, r3, asl #12
	mov	r3, r3, asl #16
	mov	r3, r3, lsr #16
	orr	r3, r2, r3
	mov	r3, r3, asl #16
	mov	r2, r3, lsr #16
	ldrh	r3, [fp, #-18]
	mov	r3, r3, lsr #5
	mov	r3, r3, asl #16
	mov	r3, r3, lsr #16
	and	r3, r3, #1
	mov	r3, r3, asl #11
	mov	r3, r3, asl #16
	mov	r3, r3, lsr #16
	orr	r3, r2, r3
	mov	r3, r3, asl #16
	mov	r2, r3, lsr #16
	ldrh	r3, [fp, #-18]
	mov	r3, r3, lsr #4
	mov	r3, r3, asl #16
	mov	r3, r3, lsr #16
	and	r3, r3, #1
	mov	r3, r3, asl #10
	mov	r3, r3, asl #16
	mov	r3, r3, lsr #16
	orr	r3, r2, r3
	mov	r3, r3, asl #16
	mov	r2, r3, lsr #16
	ldrh	r3, [fp, #-18]
	mov	r3, r3, lsr #7
	mov	r3, r3, asl #16
	mov	r3, r3, lsr #16
	and	r3, r3, #1
	mov	r3, r3, asl #9
	mov	r3, r3, asl #16
	mov	r3, r3, lsr #16
	orr	r3, r2, r3
	mov	r3, r3, asl #16
	mov	r2, r3, lsr #16
	ldrh	r3, [fp, #-18]
	mov	r3, r3, lsr #6
	mov	r3, r3, asl #16
	mov	r3, r3, lsr #16
	and	r3, r3, #1
	mov	r3, r3, asl #8
	mov	r3, r3, asl #16
	mov	r3, r3, lsr #16
	orr	r3, r2, r3
	mov	r3, r3, asl #16
	mov	r2, r3, lsr #16
	ldrh	r3, [fp, #-18]
	mov	r3, r3, lsr #9
	mov	r3, r3, asl #16
	mov	r3, r3, lsr #16
	mov	r3, r3, asl #7
	mov	r3, r3, asl #16
	mov	r3, r3, lsr #16
	and	r3, r3, #255
	mov	r3, r3, asl #16
	mov	r3, r3, lsr #16
	orr	r3, r2, r3
	mov	r3, r3, asl #16
	mov	r2, r3, lsr #16
	ldrh	r3, [fp, #-18]
	mov	r3, r3, lsr #8
	mov	r3, r3, asl #16
	mov	r3, r3, lsr #16
	and	r3, r3, #1
	mov	r3, r3, asl #6
	mov	r3, r3, asl #16
	mov	r3, r3, lsr #16
	orr	r3, r2, r3
	mov	r3, r3, asl #16
	mov	r2, r3, lsr #16
	ldrh	r3, [fp, #-18]
	mov	r3, r3, lsr #11
	mov	r3, r3, asl #16
	mov	r3, r3, lsr #16
	and	r3, r3, #1
	mov	r3, r3, asl #5
	mov	r3, r3, asl #16
	mov	r3, r3, lsr #16
	orr	r3, r2, r3
	mov	r3, r3, asl #16
	mov	r2, r3, lsr #16
	ldrh	r3, [fp, #-18]
	mov	r3, r3, lsr #10
	mov	r3, r3, asl #16
	mov	r3, r3, lsr #16
	and	r3, r3, #1
	mov	r3, r3, asl #4
	mov	r3, r3, asl #16
	mov	r3, r3, lsr #16
	orr	r3, r2, r3
	mov	r3, r3, asl #16
	mov	r2, r3, lsr #16
	ldrh	r3, [fp, #-18]
	mov	r3, r3, lsr #3
	mov	r3, r3, asl #16
	mov	r3, r3, lsr #16
	and	r3, r3, #1
	mov	r3, r3, asl #3
	mov	r3, r3, asl #16
	mov	r3, r3, lsr #16
	orr	r3, r2, r3
	mov	r3, r3, asl #16
	mov	r2, r3, lsr #16
	ldrh	r3, [fp, #-18]
	mov	r3, r3, lsr #2
	mov	r3, r3, asl #16
	mov	r3, r3, lsr #16
	and	r3, r3, #1
	mov	r3, r3, asl #2
	mov	r3, r3, asl #16
	mov	r3, r3, lsr #16
	orr	r3, r2, r3
	mov	r3, r3, asl #16
	mov	r2, r3, lsr #16
	ldrh	r3, [fp, #-18]
	mov	r3, r3, lsr #1
	mov	r3, r3, asl #16
	mov	r3, r3, lsr #16
	and	r3, r3, #1
	mov	r3, r3, asl #1
	mov	r3, r3, asl #16
	mov	r3, r3, lsr #16
	orr	r3, r2, r3
	mov	r3, r3, asl #16
	mov	r2, r3, lsr #16
	ldrh	r3, [fp, #-18]
	and	r3, r3, #1
	mov	r3, r3, asl #16
	mov	r3, r3, lsr #16
	orr	r3, r2, r3
	mov	r3, r3, asl #16
	mov	r3, r3, lsr #16
	strh	r3, [fp, #-18]	@ movhi
	ldr	r3, [fp, #-8]
	add	r3, r3, #1
	ldr	r2, [fp, #-12]
	add	r3, r2, r3
	ldrh	r2, [fp, #-18]	@ movhi
	and	r2, r2, #255
	strb	r2, [r3, #0]
	ldr	r3, [fp, #-8]
	add	r3, r3, #2
	ldr	r2, [fp, #-12]
	add	r3, r2, r3
	ldrh	r2, [fp, #-18]
	mov	r2, r2, lsr #8
	mov	r2, r2, asl #16
	mov	r2, r2, lsr #16
	and	r2, r2, #255
	strb	r2, [r3, #0]
	ldr	r3, [fp, #-8]
	add	r3, r3, #4
	str	r3, [fp, #-8]
.L188:
	ldr	r2, [fp, #-8]
	ldr	r3, .L195+16
	cmp	r2, r3
	bls	.L189
	mov	r3, #0
	str	r3, [fp, #-8]
	b	.L190
.L191:
	ldr	r3, [fp, #-8]
	and	r2, r3, #240
	ldr	r3, [fp, #-8]
	and	r3, r3, #1
	mov	r1, r3, asl #3
	ldr	r3, [fp, #-8]
	and	r3, r3, #15
	mov	r3, r3, lsr #1
	and	r3, r3, #1
	mov	r3, r3, asl #2
	orr	r1, r1, r3
	ldr	r3, [fp, #-8]
	and	r3, r3, #15
	mov	r3, r3, lsr #2
	and	r3, r3, #1
	mov	r3, r3, asl #1
	orr	r1, r1, r3
	ldr	r3, [fp, #-8]
	and	r3, r3, #15
	mov	r3, r3, lsr #3
	and	r3, r3, #1
	orr	r3, r1, r3
	add	r3, r2, r3
	str	r3, [fp, #-24]
	ldr	r2, [fp, #-16]
	ldr	r3, [fp, #-8]
	mov	r3, r3, asl #16
	add	r2, r2, r3
	ldr	r1, [fp, #-12]
	ldr	r3, [fp, #-24]
	mov	r3, r3, asl #16
	add	r3, r1, r3
	mov	ip, #65536
	mov	r0, r2
	mov	r1, r3
	mov	r3, ip
	mov	r2, r3
	bl	memcpy
	ldr	r3, [fp, #-8]
	add	r3, r3, #1
	str	r3, [fp, #-8]
.L190:
	ldr	r3, [fp, #-8]
	cmp	r3, #15
	bls	.L191
	ldr	r2, [fp, #-12]
	ldr	r3, [fp, #-16]
	mov	ip, #1048576
	mov	r0, r2
	mov	r1, r3
	mov	r3, ip
	mov	r2, r3
	bl	memcpy
	mov	r3, #1048576
	str	r3, [fp, #-8]
	b	.L192
.L193:
	ldr	r2, [fp, #-8]
	ldr	r3, .L195+20
	and	r3, r2, r3
	ldr	r2, [fp, #-8]
	and	r2, r2, #3840
	eor	r2, r2, #1024
	add	r2, r3, r2
	ldr	r3, [fp, #-8]
	and	r3, r3, #1044480
	mov	r3, r3, lsr #16
	mov	r3, r3, asl #7
	and	r1, r3, #255
	ldr	r3, [fp, #-8]
	and	r3, r3, #1044480
	mov	r3, r3, lsr #17
	and	r3, r3, #1
	mov	r3, r3, asl #6
	orr	r1, r1, r3
	ldr	r3, [fp, #-8]
	and	r3, r3, #1044480
	mov	r3, r3, lsr #18
	and	r3, r3, #1
	mov	r3, r3, asl #5
	orr	r1, r1, r3
	ldr	r3, [fp, #-8]
	and	r3, r3, #1044480
	mov	r3, r3, lsr #19
	and	r3, r3, #1
	mov	r3, r3, asl #4
	orr	r1, r1, r3
	ldr	r3, [fp, #-8]
	and	r3, r3, #1044480
	mov	r3, r3, lsr #13
	and	r3, r3, #1
	mov	r3, r3, asl #3
	orr	r1, r1, r3
	ldr	r3, [fp, #-8]
	and	r3, r3, #1044480
	mov	r3, r3, lsr #12
	and	r3, r3, #1
	mov	r3, r3, asl #2
	orr	r1, r1, r3
	ldr	r3, [fp, #-8]
	and	r3, r3, #1044480
	mov	r3, r3, lsr #15
	and	r3, r3, #1
	mov	r3, r3, asl #1
	orr	r1, r1, r3
	ldr	r3, [fp, #-8]
	and	r3, r3, #1044480
	mov	r3, r3, lsr #14
	and	r3, r3, #1
	orr	r3, r1, r3
	mov	r3, r3, asl #12
	add	r3, r2, r3
	str	r3, [fp, #-24]
	ldr	r3, [fp, #-8]
	sub	r3, r3, #1048576
	ldr	r2, [fp, #-16]
	add	r3, r2, r3
	mov	r2, r3
	ldr	r1, [fp, #-12]
	ldr	r3, [fp, #-24]
	add	r3, r1, r3
	mov	ip, #256
	mov	r0, r2
	mov	r1, r3
	mov	r3, ip
	mov	r2, r3
	bl	memcpy
	ldr	r3, [fp, #-8]
	add	r3, r3, #256
	str	r3, [fp, #-8]
.L192:
	ldr	r2, [fp, #-8]
	ldr	r3, .L195+24
	cmp	r2, r3
	bls	.L193
	ldr	r3, [fp, #-12]
	add	r2, r3, #1048576
	ldr	r3, [fp, #-16]
	add	r3, r3, #7340032
	mov	ip, #1048576
	mov	r0, r2
	mov	r1, r3
	mov	r3, ip
	mov	r2, r3
	bl	memcpy
	ldr	r3, [fp, #-12]
	add	r2, r3, #2097152
	ldr	r3, [fp, #-16]
	mov	ip, #7340032
	mov	r0, r2
	mov	r1, r3
	mov	r3, ip
	mov	r2, r3
	bl	memcpy
	ldr	r0, [fp, #-16]
	bl	free
	mov	r3, #1
	b	.L194
.L181:
	mov	r3, #0
.L194:
	mov	r0, r3
	sub	sp, fp, #4
	ldmfd	sp!, {fp, pc}
.L196:
	.align	2
.L195:
	.word	.LC1
	.word	.LC2
	.word	memory_region_cpu1
	.word	1048575
	.word	8388607
	.word	15728895
	.word	9437183
	.fnend
	.size	kof2003h_decrypt_68k, .-kof2003h_decrypt_68k
	.section	.rodata
	.align	2
.LC0:
	.byte	4
	.byte	10
	.byte	4
	.byte	10
	.byte	4
	.byte	10
	.byte	4
	.byte	10
	.byte	10
	.byte	4
	.byte	10
	.byte	4
	.byte	10
	.byte	4
	.byte	10
	.byte	4
	.byte	9
	.byte	7
	.byte	9
	.byte	7
	.byte	9
	.byte	7
	.byte	9
	.byte	7
	.byte	9
	.byte	9
	.byte	4
	.byte	4
	.byte	9
	.byte	9
	.byte	4
	.byte	4
	.byte	11
	.byte	13
	.byte	11
	.byte	13
	.byte	3
	.byte	5
	.byte	3
	.byte	5
	.byte	14
	.byte	14
	.byte	3
	.byte	3
	.byte	14
	.byte	14
	.byte	3
	.byte	3
	.byte	3
	.byte	5
	.byte	11
	.byte	13
	.byte	3
	.byte	5
	.byte	11
	.byte	13
	.byte	4
	.byte	0
	.byte	4
	.byte	0
	.byte	14
	.byte	10
	.byte	14
	.byte	10
	.text
	.align	2
	.global	kf2k3pcb_sp1_decrypt
	.type	kf2k3pcb_sp1_decrypt, %function
kf2k3pcb_sp1_decrypt:
	.fnstart
	@ args = 0, pretend = 0, frame = 80
	@ frame_needed = 1, uses_anonymous_args = 0
	stmfd	sp!, {fp, lr}
	.save {fp, lr}
	.setfp fp, sp, #4
	add	fp, sp, #4
	.pad #80
	sub	sp, sp, #80
	ldr	r3, .L212
	mov	ip, #64
	sub	r2, fp, #84
	mov	r0, r2
	mov	r1, r3
	mov	r3, ip
	mov	r2, r3
	bl	memcpy
	ldr	r3, .L212+4
	ldr	r3, [r3, #0]
	str	r3, [fp, #-16]
	mov	r0, #262144
	bl	malloc
	mov	r3, r0
	str	r3, [fp, #-20]
	ldr	r3, [fp, #-20]
	cmp	r3, #0
	beq	.L198
	mov	r3, #0
	str	r3, [fp, #-8]
	b	.L199
.L210:
	ldr	r3, [fp, #-8]
	eor	r3, r3, #32
	str	r3, [fp, #-12]
	ldr	r3, [fp, #-8]
	and	r3, r3, #32
	cmp	r3, #0
	beq	.L200
	ldr	r3, [fp, #-12]
	eor	r3, r3, #16
	str	r3, [fp, #-12]
.L200:
	ldr	r3, [fp, #-8]
	and	r3, r3, #16
	cmp	r3, #0
	bne	.L201
	ldr	r3, [fp, #-12]
	eor	r3, r3, #64
	str	r3, [fp, #-12]
.L201:
	ldr	r3, [fp, #-8]
	and	r3, r3, #4
	cmp	r3, #0
	bne	.L202
	ldr	r3, [fp, #-12]
	eor	r3, r3, #128
	str	r3, [fp, #-12]
.L202:
	ldr	r3, [fp, #-8]
	and	r3, r3, #512
	cmp	r3, #0
	beq	.L203
	ldr	r3, [fp, #-12]
	eor	r3, r3, #256
	str	r3, [fp, #-12]
.L203:
	ldr	r3, [fp, #-8]
	and	r3, r3, #8192
	cmp	r3, #0
	bne	.L204
	ldr	r3, [fp, #-12]
	eor	r3, r3, #1024
	str	r3, [fp, #-12]
.L204:
	ldr	r3, [fp, #-8]
	and	r3, r3, #65536
	cmp	r3, #0
	bne	.L205
	ldr	r3, [fp, #-12]
	eor	r3, r3, #4096
	str	r3, [fp, #-12]
.L205:
	ldr	r3, [fp, #-8]
	and	r3, r3, #8192
	cmp	r3, #0
	beq	.L206
	ldr	r3, [fp, #-12]
	eor	r3, r3, #32768
	str	r3, [fp, #-12]
.L206:
	ldr	r3, [fp, #-8]
	mov	r3, r3, lsr #1
	and	r2, r3, #56
	ldr	r3, [fp, #-8]
	and	r3, r3, #7
	orr	r3, r2, r3
	mvn	r1, #79
	sub	r0, fp, #4
	add	r2, r0, r3
	mov	r3, r1
	add	r3, r2, r3
	ldrb	r3, [r3, #0]	@ zero_extendqisi2
	ldr	r2, [fp, #-12]
	eor	r3, r2, r3
	str	r3, [fp, #-12]
	ldr	r3, [fp, #-8]
	mov	r3, r3, asl #1
	ldr	r2, [fp, #-20]
	add	r3, r2, r3
	ldr	r2, [fp, #-12]
	mov	r2, r2, asl #1
	ldr	r1, [fp, #-16]
	add	r2, r1, r2
	ldrh	r2, [r2, #0]
	strh	r2, [r3, #0]	@ movhi
	ldr	r3, [fp, #-8]
	mov	r3, r3, asl #1
	ldr	r2, [fp, #-20]
	add	r3, r2, r3
	ldrh	r3, [r3, #0]
	and	r3, r3, #4
	cmp	r3, #0
	beq	.L207
	ldr	r3, [fp, #-8]
	mov	r3, r3, asl #1
	ldr	r2, [fp, #-20]
	add	r3, r2, r3
	ldr	r2, [fp, #-8]
	mov	r2, r2, asl #1
	ldr	r1, [fp, #-20]
	add	r2, r1, r2
	ldrh	r2, [r2, #0]
	eor	r2, r2, #1
	mov	r2, r2, asl #16
	mov	r2, r2, lsr #16
	strh	r2, [r3, #0]	@ movhi
.L207:
	ldr	r3, [fp, #-8]
	mov	r3, r3, asl #1
	ldr	r2, [fp, #-20]
	add	r3, r2, r3
	ldrh	r3, [r3, #0]
	and	r3, r3, #16
	cmp	r3, #0
	beq	.L208
	ldr	r3, [fp, #-8]
	mov	r3, r3, asl #1
	ldr	r2, [fp, #-20]
	add	r3, r2, r3
	ldr	r2, [fp, #-8]
	mov	r2, r2, asl #1
	ldr	r1, [fp, #-20]
	add	r2, r1, r2
	ldrh	r2, [r2, #0]
	eor	r2, r2, #2
	mov	r2, r2, asl #16
	mov	r2, r2, lsr #16
	strh	r2, [r3, #0]	@ movhi
.L208:
	ldr	r3, [fp, #-8]
	mov	r3, r3, asl #1
	ldr	r2, [fp, #-20]
	add	r3, r2, r3
	ldrh	r3, [r3, #0]
	and	r3, r3, #32
	cmp	r3, #0
	beq	.L209
	ldr	r3, [fp, #-8]
	mov	r3, r3, asl #1
	ldr	r2, [fp, #-20]
	add	r3, r2, r3
	ldr	r2, [fp, #-8]
	mov	r2, r2, asl #1
	ldr	r1, [fp, #-20]
	add	r2, r1, r2
	ldrh	r2, [r2, #0]
	eor	r2, r2, #8
	mov	r2, r2, asl #16
	mov	r2, r2, lsr #16
	strh	r2, [r3, #0]	@ movhi
.L209:
	ldr	r3, [fp, #-8]
	add	r3, r3, #1
	str	r3, [fp, #-8]
.L199:
	ldr	r2, [fp, #-8]
	ldr	r3, .L212+8
	cmp	r2, r3
	bls	.L210
	ldr	r2, [fp, #-16]
	ldr	r3, [fp, #-20]
	mov	ip, #524288
	mov	r0, r2
	mov	r1, r3
	mov	r3, ip
	mov	r2, r3
	bl	memcpy
	ldr	r0, [fp, #-20]
	bl	free
	mov	r3, #1
	b	.L211
.L198:
	mov	r3, #0
.L211:
	mov	r0, r3
	sub	sp, fp, #4
	ldmfd	sp!, {fp, pc}
.L213:
	.align	2
.L212:
	.word	.LC0
	.word	memory_region_user1
	.word	262143
	.fnend
	.size	kf2k3pcb_sp1_decrypt, .-kf2k3pcb_sp1_decrypt
	.align	2
	.global	patch_sbp
	.type	patch_sbp, %function
patch_sbp:
	.fnstart
	@ args = 0, pretend = 0, frame = 16
	@ frame_needed = 1, uses_anonymous_args = 0
	@ link register save eliminated.
	str	fp, [sp, #-4]!
	.save {fp}
	.setfp fp, sp, #0
	add	fp, sp, #0
	.pad #20
	sub	sp, sp, #20
	ldr	r3, .L217
	ldr	r3, [r3, #0]
	str	r3, [fp, #-12]
	mov	r3, #256
	str	r3, [fp, #-8]
	b	.L215
.L216:
	ldr	r3, [fp, #-8]
	mov	r3, r3, asl #1
	ldr	r2, [fp, #-12]
	add	r3, r2, r3
	ldr	r2, [fp, #-8]
	mov	r2, r2, asl #1
	ldr	r1, [fp, #-12]
	add	r2, r1, r2
	ldrh	r2, [r2, #0]
	mov	r2, r2, lsr #11
	mov	r2, r2, asl #16
	mov	r2, r2, lsr #16
	mov	r2, r2, asl #15
	mov	r2, r2, asl #16
	mov	r1, r2, lsr #16
	ldr	r2, [fp, #-8]
	mov	r2, r2, asl #1
	ldr	r0, [fp, #-12]
	add	r2, r0, r2
	ldrh	r2, [r2, #0]
	mov	r2, r2, lsr #10
	mov	r2, r2, asl #16
	mov	r2, r2, lsr #16
	and	r2, r2, #1
	mov	r2, r2, asl #14
	mov	r2, r2, asl #16
	mov	r2, r2, lsr #16
	orr	r2, r1, r2
	mov	r2, r2, asl #16
	mov	r1, r2, lsr #16
	ldr	r2, [fp, #-8]
	mov	r2, r2, asl #1
	ldr	r0, [fp, #-12]
	add	r2, r0, r2
	ldrh	r2, [r2, #0]
	mov	r2, r2, lsr #9
	mov	r2, r2, asl #16
	mov	r2, r2, lsr #16
	and	r2, r2, #1
	mov	r2, r2, asl #13
	mov	r2, r2, asl #16
	mov	r2, r2, lsr #16
	orr	r2, r1, r2
	mov	r2, r2, asl #16
	mov	r1, r2, lsr #16
	ldr	r2, [fp, #-8]
	mov	r2, r2, asl #1
	ldr	r0, [fp, #-12]
	add	r2, r0, r2
	ldrh	r2, [r2, #0]
	mov	r2, r2, lsr #8
	mov	r2, r2, asl #16
	mov	r2, r2, lsr #16
	and	r2, r2, #1
	mov	r2, r2, asl #12
	mov	r2, r2, asl #16
	mov	r2, r2, lsr #16
	orr	r2, r1, r2
	mov	r2, r2, asl #16
	mov	r1, r2, lsr #16
	ldr	r2, [fp, #-8]
	mov	r2, r2, asl #1
	ldr	r0, [fp, #-12]
	add	r2, r0, r2
	ldrh	r2, [r2, #0]
	mov	r2, r2, lsr #15
	mov	r2, r2, asl #16
	mov	r2, r2, lsr #16
	and	r2, r2, #1
	mov	r2, r2, asl #11
	mov	r2, r2, asl #16
	mov	r2, r2, lsr #16
	orr	r2, r1, r2
	mov	r2, r2, asl #16
	mov	r1, r2, lsr #16
	ldr	r2, [fp, #-8]
	mov	r2, r2, asl #1
	ldr	r0, [fp, #-12]
	add	r2, r0, r2
	ldrh	r2, [r2, #0]
	mov	r2, r2, lsr #14
	mov	r2, r2, asl #16
	mov	r2, r2, lsr #16
	and	r2, r2, #1
	mov	r2, r2, asl #10
	mov	r2, r2, asl #16
	mov	r2, r2, lsr #16
	orr	r2, r1, r2
	mov	r2, r2, asl #16
	mov	r1, r2, lsr #16
	ldr	r2, [fp, #-8]
	mov	r2, r2, asl #1
	ldr	r0, [fp, #-12]
	add	r2, r0, r2
	ldrh	r2, [r2, #0]
	mov	r2, r2, lsr #13
	mov	r2, r2, asl #16
	mov	r2, r2, lsr #16
	and	r2, r2, #1
	mov	r2, r2, asl #9
	mov	r2, r2, asl #16
	mov	r2, r2, lsr #16
	orr	r2, r1, r2
	mov	r2, r2, asl #16
	mov	r1, r2, lsr #16
	ldr	r2, [fp, #-8]
	mov	r2, r2, asl #1
	ldr	r0, [fp, #-12]
	add	r2, r0, r2
	ldrh	r2, [r2, #0]
	mov	r2, r2, lsr #12
	mov	r2, r2, asl #16
	mov	r2, r2, lsr #16
	and	r2, r2, #1
	mov	r2, r2, asl #8
	mov	r2, r2, asl #16
	mov	r2, r2, lsr #16
	orr	r2, r1, r2
	mov	r2, r2, asl #16
	mov	r1, r2, lsr #16
	ldr	r2, [fp, #-8]
	mov	r2, r2, asl #1
	ldr	r0, [fp, #-12]
	add	r2, r0, r2
	ldrh	r2, [r2, #0]
	mov	r2, r2, lsr #3
	mov	r2, r2, asl #16
	mov	r2, r2, lsr #16
	mov	r2, r2, asl #7
	mov	r2, r2, asl #16
	mov	r2, r2, lsr #16
	and	r2, r2, #255
	mov	r2, r2, asl #16
	mov	r2, r2, lsr #16
	orr	r2, r1, r2
	mov	r2, r2, asl #16
	mov	r1, r2, lsr #16
	ldr	r2, [fp, #-8]
	mov	r2, r2, asl #1
	ldr	r0, [fp, #-12]
	add	r2, r0, r2
	ldrh	r2, [r2, #0]
	mov	r2, r2, lsr #2
	mov	r2, r2, asl #16
	mov	r2, r2, lsr #16
	and	r2, r2, #1
	mov	r2, r2, asl #6
	mov	r2, r2, asl #16
	mov	r2, r2, lsr #16
	orr	r2, r1, r2
	mov	r2, r2, asl #16
	mov	r1, r2, lsr #16
	ldr	r2, [fp, #-8]
	mov	r2, r2, asl #1
	ldr	r0, [fp, #-12]
	add	r2, r0, r2
	ldrh	r2, [r2, #0]
	mov	r2, r2, lsr #1
	mov	r2, r2, asl #16
	mov	r2, r2, lsr #16
	and	r2, r2, #1
	mov	r2, r2, asl #5
	mov	r2, r2, asl #16
	mov	r2, r2, lsr #16
	orr	r2, r1, r2
	mov	r2, r2, asl #16
	mov	r1, r2, lsr #16
	ldr	r2, [fp, #-8]
	mov	r2, r2, asl #1
	ldr	r0, [fp, #-12]
	add	r2, r0, r2
	ldrh	r2, [r2, #0]
	and	r2, r2, #1
	mov	r2, r2, asl #4
	mov	r2, r2, asl #16
	mov	r2, r2, lsr #16
	orr	r2, r1, r2
	mov	r2, r2, asl #16
	mov	r1, r2, lsr #16
	ldr	r2, [fp, #-8]
	mov	r2, r2, asl #1
	ldr	r0, [fp, #-12]
	add	r2, r0, r2
	ldrh	r2, [r2, #0]
	mov	r2, r2, lsr #7
	mov	r2, r2, asl #16
	mov	r2, r2, lsr #16
	and	r2, r2, #1
	mov	r2, r2, asl #3
	mov	r2, r2, asl #16
	mov	r2, r2, lsr #16
	orr	r2, r1, r2
	mov	r2, r2, asl #16
	mov	r1, r2, lsr #16
	ldr	r2, [fp, #-8]
	mov	r2, r2, asl #1
	ldr	r0, [fp, #-12]
	add	r2, r0, r2
	ldrh	r2, [r2, #0]
	mov	r2, r2, lsr #6
	mov	r2, r2, asl #16
	mov	r2, r2, lsr #16
	and	r2, r2, #1
	mov	r2, r2, asl #2
	mov	r2, r2, asl #16
	mov	r2, r2, lsr #16
	orr	r2, r1, r2
	mov	r2, r2, asl #16
	mov	r1, r2, lsr #16
	ldr	r2, [fp, #-8]
	mov	r2, r2, asl #1
	ldr	r0, [fp, #-12]
	add	r2, r0, r2
	ldrh	r2, [r2, #0]
	mov	r2, r2, lsr #5
	mov	r2, r2, asl #16
	mov	r2, r2, lsr #16
	and	r2, r2, #1
	mov	r2, r2, asl #1
	mov	r2, r2, asl #16
	mov	r2, r2, lsr #16
	orr	r2, r1, r2
	mov	r2, r2, asl #16
	mov	r1, r2, lsr #16
	ldr	r2, [fp, #-8]
	mov	r2, r2, asl #1
	ldr	r0, [fp, #-12]
	add	r2, r0, r2
	ldrh	r2, [r2, #0]
	mov	r2, r2, lsr #4
	mov	r2, r2, asl #16
	mov	r2, r2, lsr #16
	mov	r2, r2, asl #16
	mov	r2, r2, lsr #16
	and	r2, r2, #1
	mov	r2, r2, asl #16
	mov	r2, r2, lsr #16
	orr	r2, r1, r2
	mov	r2, r2, asl #16
	mov	r2, r2, lsr #16
	mov	r2, r2, asl #16
	mov	r2, r2, lsr #16
	strh	r2, [r3, #0]	@ movhi
	ldr	r3, [fp, #-8]
	add	r3, r3, #1
	str	r3, [fp, #-8]
.L215:
	ldr	r2, [fp, #-8]
	ldr	r3, .L217+4
	cmp	r2, r3
	bls	.L216
	ldr	r3, .L217
	ldr	r3, [r3, #0]
	str	r3, [fp, #-16]
	ldr	r3, [fp, #-16]
	add	r3, r3, #173056
	add	r3, r3, #760
	ldr	r2, .L217+8
	strh	r2, [r3, #0]	@ movhi
	ldr	r2, [fp, #-16]
	ldr	r3, .L217+12
	add	r3, r2, r3
	ldr	r2, .L217+8
	strh	r2, [r3, #0]	@ movhi
	ldr	r3, [fp, #-16]
	add	r3, r3, #173056
	add	r3, r3, #764
	ldr	r2, .L217+8
	strh	r2, [r3, #0]	@ movhi
	ldr	r3, [fp, #-16]
	add	r3, r3, #261120
	add	r3, r3, #812
	ldr	r2, .L217+16
	strh	r2, [r3, #0]	@ movhi
	add	sp, fp, #0
	ldmfd	sp!, {fp}
	bx	lr
.L218:
	.align	2
.L217:
	.word	memory_region_cpu1
	.word	2111
	.word	20081
	.word	173818
	.word	28673
	.fnend
	.size	patch_sbp, .-patch_sbp
	.align	2
	.global	patch_kf2k3pcb
	.type	patch_kf2k3pcb, %function
patch_kf2k3pcb:
	.fnstart
	@ args = 0, pretend = 0, frame = 8
	@ frame_needed = 1, uses_anonymous_args = 0
	@ link register save eliminated.
	str	fp, [sp, #-4]!
	.save {fp}
	.setfp fp, sp, #0
	add	fp, sp, #0
	.pad #12
	sub	sp, sp, #12
	ldr	r3, .L222
	ldr	r3, [r3, #0]
	str	r3, [fp, #-12]
	mov	r3, #0
	str	r3, [fp, #-8]
	b	.L220
.L221:
	ldr	r2, [fp, #-12]
	ldr	r3, [fp, #-8]
	add	r3, r2, r3
	ldr	r1, [fp, #-12]
	ldr	r2, [fp, #-8]
	add	r2, r1, r2
	ldrb	r2, [r2, #0]	@ zero_extendqisi2
	mov	r2, r2, lsr #5
	and	r2, r2, #255
	mov	r2, r2, asl #7
	and	r1, r2, #255
	ldr	r0, [fp, #-12]
	ldr	r2, [fp, #-8]
	add	r2, r0, r2
	ldrb	r2, [r2, #0]	@ zero_extendqisi2
	mov	r2, r2, lsr #6
	and	r2, r2, #255
	and	r2, r2, #1
	mov	r2, r2, asl #6
	and	r2, r2, #255
	orr	r2, r1, r2
	and	r1, r2, #255
	ldr	r0, [fp, #-12]
	ldr	r2, [fp, #-8]
	add	r2, r0, r2
	ldrb	r2, [r2, #0]	@ zero_extendqisi2
	mov	r2, r2, lsr #1
	and	r2, r2, #255
	and	r2, r2, #1
	mov	r2, r2, asl #5
	and	r2, r2, #255
	orr	r2, r1, r2
	and	r1, r2, #255
	ldr	r0, [fp, #-12]
	ldr	r2, [fp, #-8]
	add	r2, r0, r2
	ldrb	r2, [r2, #0]	@ zero_extendqisi2
	mov	r2, r2, lsr #4
	and	r2, r2, #255
	and	r2, r2, #1
	mov	r2, r2, asl #4
	and	r2, r2, #255
	orr	r2, r1, r2
	and	r1, r2, #255
	ldr	r0, [fp, #-12]
	ldr	r2, [fp, #-8]
	add	r2, r0, r2
	ldrb	r2, [r2, #0]	@ zero_extendqisi2
	mov	r2, r2, lsr #3
	and	r2, r2, #255
	and	r2, r2, #1
	mov	r2, r2, asl #3
	and	r2, r2, #255
	orr	r2, r1, r2
	and	r1, r2, #255
	ldr	r0, [fp, #-12]
	ldr	r2, [fp, #-8]
	add	r2, r0, r2
	ldrb	r2, [r2, #0]	@ zero_extendqisi2
	and	r2, r2, #1
	mov	r2, r2, asl #2
	and	r2, r2, #255
	orr	r2, r1, r2
	and	r1, r2, #255
	ldr	r0, [fp, #-12]
	ldr	r2, [fp, #-8]
	add	r2, r0, r2
	ldrb	r2, [r2, #0]	@ zero_extendqisi2
	mov	r2, r2, lsr #7
	and	r2, r2, #255
	and	r2, r2, #1
	mov	r2, r2, asl #1
	and	r2, r2, #255
	orr	r2, r1, r2
	and	r1, r2, #255
	ldr	r0, [fp, #-12]
	ldr	r2, [fp, #-8]
	add	r2, r0, r2
	ldrb	r2, [r2, #0]	@ zero_extendqisi2
	mov	r2, r2, lsr #2
	and	r2, r2, #255
	and	r2, r2, #255
	and	r2, r2, #1
	and	r2, r2, #255
	orr	r2, r1, r2
	and	r2, r2, #255
	and	r2, r2, #255
	strb	r2, [r3, #0]
	ldr	r3, [fp, #-8]
	add	r3, r3, #1
	str	r3, [fp, #-8]
.L220:
	ldr	r2, [fp, #-8]
	ldr	r3, .L222+4
	cmp	r2, r3
	bls	.L221
	add	sp, fp, #0
	ldmfd	sp!, {fp}
	bx	lr
.L223:
	.align	2
.L222:
	.word	memory_region_cpu2
	.word	589823
	.fnend
	.size	patch_kf2k3pcb, .-patch_kf2k3pcb
	.ident	"GCC: (Sourcery CodeBench Lite 2012.03-57) 4.6.3"
	.section	.note.GNU-stack,"",%progbits
